1000 0044 abab aaf1 02e0 7f34 00 10000100 LDA   #$D4               86 d4 1f 8a 86        0 
1002 d444 abab aaf1 02e0 7f34 00 10001000 TFR   A,CC               1f 8a 86 20 1f        2 
1004 d444 abab aaf1 02e0 7f34 00 11010100 LDA   #$20               86 20 1f 8b 10        8 
1006 2044 abab aaf1 02e0 7f34 00 11010000 TFR   A,DP               1f 8b 10 ff 10       10 
1008 2044 abab aaf1 02e0 7f34 20 11010000 STS   $10A2              10 ff 10 a2 10       16 
100c 2044 abab aaf1 02e0 7f34 20 11010000 LDS   #$1FFF             10 ce 1f ff bd       23 
1010 2044 abab aaf1 02e0 1fff 20 11010000 JSR   $10A4              bd 10 a4 bd 10       27 
10a4 2044 abab aaf1 02e0 1ffd 20 11010000 LDX   #$7FFE             8e 7f fe 9f 04       35 
10a7 2044 7ffe aaf1 02e0 1ffd 20 11010000 STX   <$04               9f 04 cc 00 01       38 
10a9 2044 7ffe aaf1 02e0 1ffd 20 11010000 LDD   #$0001             cc 00 01 dd 06       43 
10ac 0001 7ffe aaf1 02e0 1ffd 20 11010000 STD   <$06               dd 06 39 dc 06       46 
10ae 0001 7ffe aaf1 02e0 1ffd 20 11010000 RTS                      39 dc 06 44 56       51 
1013 0001 7ffe aaf1 02e0 1fff 20 11010000 JSR   $10BC              bd 10 bc 10 8e       56 
10bc 0001 7ffe aaf1 02e0 1ffd 20 11010000 PSHS  X                  34 10 8e 00 00       64 
10be 0001 7ffe aaf1 02e0 1ffb 20 11010000 LDX   #$0000             8e 00 00 bf 10       71 
10c1 0001 0000 aaf1 02e0 1ffb 20 11010100 STX   $10A0              bf 10 a0 bf 10       74 
10c4 0001 0000 aaf1 02e0 1ffb 20 11010100 STX   $109C              bf 10 9c bf 10       80 
10c7 0001 0000 aaf1 02e0 1ffb 20 11010100 STX   $109E              bf 10 9e bf 10       86 
10ca 0001 0000 aaf1 02e0 1ffb 20 11010100 STX   $1098              bf 10 98 30 01       92 
10cd 0001 0000 aaf1 02e0 1ffb 20 11010100 LEAX  $1,X               30 01 bf 10 9a       98 
10cf 0001 0001 aaf1 02e0 1ffb 20 11010000 STX   $109A              bf 10 9a 35 90      103 
10d2 0001 0001 aaf1 02e0 1ffb 20 11010000 PULS  X,PC               35 90 34 56 4f      109 
1016 0001 7ffe aaf1 02e0 1fff 20 11010000 LDY   #$0004             10 8e 00 04 ce      118 
101a 0001 7ffe 0004 02e0 1fff 20 11010000 LDU   #$1086             ce 10 86 8e 00      122 
101d 0001 7ffe 0004 1086 1fff 20 11010000 LDX   #$0012             8e 00 12 bd 10      125 
1020 0001 0012 0004 1086 1fff 20 11010000 JSR   $10D4              bd 10 d4 8e 10      128 
10d4 0001 0012 0004 1086 1ffd 20 11010000 PSHS  U,X,B,A            34 56 4f e6 c0      136 
10d6 0001 0012 0004 1086 1ff7 20 11010000 CLRA                     4f e6 c0 f3 10      147 
10d7 0001 0012 0004 1086 1ff7 20 11010100 LDB   ,U+                e6 c0 f3 10 9a      149 
10d9 006a 0012 0004 1087 1ff7 20 11010000 ADDD  $109A              f3 10 9a fd 10      155 
10dc 006b 0012 0004 1087 1ff7 20 11010000 STD   $109A              fd 10 9a 24 09      162 
10df 006b 0012 0004 1087 1ff7 20 11010000 BCC   $10EA              24 09 fc 10 98      168 
10ea 006b 0012 0004 1087 1ff7 20 11010000 LDD   $109A              fc 10 9a f3 10      171 
10ed 006b 0012 0004 1087 1ff7 20 11010000 ADDD  $109E              f3 10 9e fd 10      177 
10f0 006b 0012 0004 1087 1ff7 20 11010000 STD   $109E              fd 10 9e fc 10      184 
10f3 006b 0012 0004 1087 1ff7 20 11010000 LDD   $1098              fc 10 98 24 03      190 
10f6 0000 0012 0004 1087 1ff7 20 11010100 BCC   $10FB              24 03 c3 00 01      196 
10fb 0000 0012 0004 1087 1ff7 20 11010100 ADDD  $109C              f3 10 9c fd 10      199 
10fe 0000 0012 0004 1087 1ff7 20 11010100 STD   $109C              fd 10 9c fc 10      206 
1101 0000 0012 0004 1087 1ff7 20 11010100 LDD   $10A0              fc 10 a0 c3 00      212 
1104 0000 0012 0004 1087 1ff7 20 11010100 ADDD  #$0001             c3 00 01 10 83      218 
1107 0001 0012 0004 1087 1ff7 20 11010000 CMPD  #$15AE             10 83 15 ae 26      222 
110b 0001 0012 0004 1087 1ff7 20 11011001 BNE   $1112              26 05 8d 0c cc      227 
1112 0001 0012 0004 1087 1ff7 20 11011001 STD   $10A0              fd 10 a0 30 1f      230 
1115 0001 0012 0004 1087 1ff7 20 11010001 LEAX  -$1,X              30 1f 26 bd 35      236 
1117 0001 0011 0004 1087 1ff7 20 11010001 BNE   $10D6              26 bd 35 d6 34      241 
10d6 0001 0011 0004 1087 1ff7 20 11010001 CLRA                     4f e6 c0 f3 10      244 
10d7 0001 0011 0004 1087 1ff7 20 11010100 LDB   ,U+                e6 c0 f3 10 9a      246 
10d9 0075 0011 0004 1088 1ff7 20 11010000 ADDD  $109A              f3 10 9a fd 10      252 
10dc 00e0 0011 0004 1088 1ff7 20 11010000 STD   $109A              fd 10 9a 24 09      259 
10df 00e0 0011 0004 1088 1ff7 20 11010000 BCC   $10EA              24 09 fc 10 98      265 
10ea 00e0 0011 0004 1088 1ff7 20 11010000 LDD   $109A              fc 10 9a f3 10      268 
10ed 00e0 0011 0004 1088 1ff7 20 11010000 ADDD  $109E              f3 10 9e fd 10      274 
10f0 014b 0011 0004 1088 1ff7 20 11010000 STD   $109E              fd 10 9e fc 10      281 
10f3 014b 0011 0004 1088 1ff7 20 11010000 LDD   $1098              fc 10 98 24 03      287 
10f6 0000 0011 0004 1088 1ff7 20 11010100 BCC   $10FB              24 03 c3 00 01      293 
10fb 0000 0011 0004 1088 1ff7 20 11010100 ADDD  $109C              f3 10 9c fd 10      296 
10fe 0000 0011 0004 1088 1ff7 20 11010100 STD   $109C              fd 10 9c fc 10      303 
1101 0000 0011 0004 1088 1ff7 20 11010100 LDD   $10A0              fc 10 a0 c3 00      309 
1104 0001 0011 0004 1088 1ff7 20 11010000 ADDD  #$0001             c3 00 01 10 83      315 
1107 0002 0011 0004 1088 1ff7 20 11010000 CMPD  #$15AE             10 83 15 ae 26      319 
110b 0002 0011 0004 1088 1ff7 20 11011001 BNE   $1112              26 05 8d 0c cc      324 
1112 0002 0011 0004 1088 1ff7 20 11011001 STD   $10A0              fd 10 a0 30 1f      327 
1115 0002 0011 0004 1088 1ff7 20 11010001 LEAX  -$1,X              30 1f 26 bd 35      333 
1117 0002 0010 0004 1088 1ff7 20 11010001 BNE   $10D6              26 bd 35 d6 34      338 
10d6 0002 0010 0004 1088 1ff7 20 11010001 CLRA                     4f e6 c0 f3 10      341 
10d7 0002 0010 0004 1088 1ff7 20 11010100 LDB   ,U+                e6 c0 f3 10 9a      343 
10d9 0073 0010 0004 1089 1ff7 20 11010000 ADDD  $109A              f3 10 9a fd 10      349 
10dc 0153 0010 0004 1089 1ff7 20 11010000 STD   $109A              fd 10 9a 24 09      356 
10df 0153 0010 0004 1089 1ff7 20 11010000 BCC   $10EA              24 09 fc 10 98      362 
10ea 0153 0010 0004 1089 1ff7 20 11010000 LDD   $109A              fc 10 9a f3 10      365 
10ed 0153 0010 0004 1089 1ff7 20 11010000 ADDD  $109E              f3 10 9e fd 10      371 
10f0 029e 0010 0004 1089 1ff7 20 11010000 STD   $109E              fd 10 9e fc 10      378 
10f3 029e 0010 0004 1089 1ff7 20 11010000 LDD   $1098              fc 10 98 24 03      384 
10f6 0000 0010 0004 1089 1ff7 20 11010100 BCC   $10FB              24 03 c3 00 01      390 
10fb 0000 0010 0004 1089 1ff7 20 11010100 ADDD  $109C              f3 10 9c fd 10      393 
10fe 0000 0010 0004 1089 1ff7 20 11010100 STD   $109C              fd 10 9c fc 10      400 
1101 0000 0010 0004 1089 1ff7 20 11010100 LDD   $10A0              fc 10 a0 c3 00      406 
1104 0002 0010 0004 1089 1ff7 20 11010000 ADDD  #$0001             c3 00 01 10 83      412 
1107 0003 0010 0004 1089 1ff7 20 11010000 CMPD  #$15AE             10 83 15 ae 26      416 
110b 0003 0010 0004 1089 1ff7 20 11011001 BNE   $1112              26 05 8d 0c cc      421 
1112 0003 0010 0004 1089 1ff7 20 11011001 STD   $10A0              fd 10 a0 30 1f      424 
1115 0003 0010 0004 1089 1ff7 20 11010001 LEAX  -$1,X              30 1f 26 bd 35      430 
1117 0003 000f 0004 1089 1ff7 20 11010001 BNE   $10D6              26 bd 35 d6 34      435 
10d6 0003 000f 0004 1089 1ff7 20 11010001 CLRA                     4f e6 c0 f3 10      438 
10d7 0003 000f 0004 1089 1ff7 20 11010100 LDB   ,U+                e6 c0 f3 10 9a      440 
10d9 0074 000f 0004 108a 1ff7 20 11010000 ADDD  $109A              f3 10 9a fd 10      446 
10dc 01c7 000f 0004 108a 1ff7 20 11010000 STD   $109A              fd 10 9a 24 09      453 
10df 01c7 000f 0004 108a 1ff7 20 11010000 BCC   $10EA              24 09 fc 10 98      459 
10ea 01c7 000f 0004 108a 1ff7 20 11010000 LDD   $109A              fc 10 9a f3 10      462 
10ed 01c7 000f 0004 108a 1ff7 20 11010000 ADDD  $109E              f3 10 9e fd 10      468 
10f0 0465 000f 0004 108a 1ff7 20 11010000 STD   $109E              fd 10 9e fc 10      475 
10f3 0465 000f 0004 108a 1ff7 20 11010000 LDD   $1098              fc 10 98 24 03      481 
10f6 0000 000f 0004 108a 1ff7 20 11010100 BCC   $10FB              24 03 c3 00 01      487 
10fb 0000 000f 0004 108a 1ff7 20 11010100 ADDD  $109C              f3 10 9c fd 10      490 
10fe 0000 000f 0004 108a 1ff7 20 11010100 STD   $109C              fd 10 9c fc 10      497 
1101 0000 000f 0004 108a 1ff7 20 11010100 LDD   $10A0              fc 10 a0 c3 00      503 
1104 0003 000f 0004 108a 1ff7 20 11010000 ADDD  #$0001             c3 00 01 10 83      509 
1107 0004 000f 0004 108a 1ff7 20 11010000 CMPD  #$15AE             10 83 15 ae 26      513 
110b 0004 000f 0004 108a 1ff7 20 11011001 BNE   $1112              26 05 8d 0c cc      518 
1112 0004 000f 0004 108a 1ff7 20 11011001 STD   $10A0              fd 10 a0 30 1f      521 
1115 0004 000f 0004 108a 1ff7 20 11010001 LEAX  -$1,X              30 1f 26 bd 35      527 
1117 0004 000e 0004 108a 1ff7 20 11010001 BNE   $10D6              26 bd 35 d6 34      532 
10d6 0004 000e 0004 108a 1ff7 20 11010001 CLRA                     4f e6 c0 f3 10      535 
10d7 0004 000e 0004 108a 1ff7 20 11010100 LDB   ,U+                e6 c0 f3 10 9a      537 
10d9 0073 000e 0004 108b 1ff7 20 11010000 ADDD  $109A              f3 10 9a fd 10      543 
10dc 023a 000e 0004 108b 1ff7 20 11010000 STD   $109A              fd 10 9a 24 09      550 
10df 023a 000e 0004 108b 1ff7 20 11010000 BCC   $10EA              24 09 fc 10 98      556 
10ea 023a 000e 0004 108b 1ff7 20 11010000 LDD   $109A              fc 10 9a f3 10      559 
10ed 023a 000e 0004 108b 1ff7 20 11010000 ADDD  $109E              f3 10 9e fd 10      565 
10f0 069f 000e 0004 108b 1ff7 20 11010000 STD   $109E              fd 10 9e fc 10      572 
10f3 069f 000e 0004 108b 1ff7 20 11010000 LDD   $1098              fc 10 98 24 03      578 
10f6 0000 000e 0004 108b 1ff7 20 11010100 BCC   $10FB              24 03 c3 00 01      584 
10fb 0000 000e 0004 108b 1ff7 20 11010100 ADDD  $109C              f3 10 9c fd 10      587 
10fe 0000 000e 0004 108b 1ff7 20 11010100 STD   $109C              fd 10 9c fc 10      594 
1101 0000 000e 0004 108b 1ff7 20 11010100 LDD   $10A0              fc 10 a0 c3 00      600 
1104 0004 000e 0004 108b 1ff7 20 11010000 ADDD  #$0001             c3 00 01 10 83      606 
1107 0005 000e 0004 108b 1ff7 20 11010000 CMPD  #$15AE             10 83 15 ae 26      610 
110b 0005 000e 0004 108b 1ff7 20 11011001 BNE   $1112              26 05 8d 0c cc      615 
1112 0005 000e 0004 108b 1ff7 20 11011001 STD   $10A0              fd 10 a0 30 1f      618 
1115 0005 000e 0004 108b 1ff7 20 11010001 LEAX  -$1,X              30 1f 26 bd 35      624 
1117 0005 000d 0004 108b 1ff7 20 11010001 BNE   $10D6              26 bd 35 d6 34      629 
10d6 0005 000d 0004 108b 1ff7 20 11010001 CLRA                     4f e6 c0 f3 10      632 
10d7 0005 000d 0004 108b 1ff7 20 11010100 LDB   ,U+                e6 c0 f3 10 9a      634 
10d9 006f 000d 0004 108c 1ff7 20 11010000 ADDD  $109A              f3 10 9a fd 10      640 
10dc 02a9 000d 0004 108c 1ff7 20 11010000 STD   $109A              fd 10 9a 24 09      647 
10df 02a9 000d 0004 108c 1ff7 20 11010000 BCC   $10EA              24 09 fc 10 98      653 
10ea 02a9 000d 0004 108c 1ff7 20 11010000 LDD   $109A              fc 10 9a f3 10      656 
10ed 02a9 000d 0004 108c 1ff7 20 11010000 ADDD  $109E              f3 10 9e fd 10      662 
10f0 0948 000d 0004 108c 1ff7 20 11010000 STD   $109E              fd 10 9e fc 10      669 
10f3 0948 000d 0004 108c 1ff7 20 11010000 LDD   $1098              fc 10 98 24 03      675 
10f6 0000 000d 0004 108c 1ff7 20 11010100 BCC   $10FB              24 03 c3 00 01      681 
10fb 0000 000d 0004 108c 1ff7 20 11010100 ADDD  $109C              f3 10 9c fd 10      684 
10fe 0000 000d 0004 108c 1ff7 20 11010100 STD   $109C              fd 10 9c fc 10      691 
1101 0000 000d 0004 108c 1ff7 20 11010100 LDD   $10A0              fc 10 a0 c3 00      697 
1104 0005 000d 0004 108c 1ff7 20 11010000 ADDD  #$0001             c3 00 01 10 83      703 
1107 0006 000d 0004 108c 1ff7 20 11010000 CMPD  #$15AE             10 83 15 ae 26      707 
110b 0006 000d 0004 108c 1ff7 20 11011001 BNE   $1112              26 05 8d 0c cc      712 
1112 0006 000d 0004 108c 1ff7 20 11011001 STD   $10A0              fd 10 a0 30 1f      715 
1115 0006 000d 0004 108c 1ff7 20 11010001 LEAX  -$1,X              30 1f 26 bd 35      721 
1117 0006 000c 0004 108c 1ff7 20 11010001 BNE   $10D6              26 bd 35 d6 34      726 
10d6 0006 000c 0004 108c 1ff7 20 11010001 CLRA                     4f e6 c0 f3 10      729 
10d7 0006 000c 0004 108c 1ff7 20 11010100 LDB   ,U+                e6 c0 f3 10 9a      731 
10d9 006d 000c 0004 108d 1ff7 20 11010000 ADDD  $109A              f3 10 9a fd 10      737 
10dc 0316 000c 0004 108d 1ff7 20 11010000 STD   $109A              fd 10 9a 24 09      744 
10df 0316 000c 0004 108d 1ff7 20 11010000 BCC   $10EA              24 09 fc 10 98      750 
10ea 0316 000c 0004 108d 1ff7 20 11010000 LDD   $109A              fc 10 9a f3 10      753 
10ed 0316 000c 0004 108d 1ff7 20 11010000 ADDD  $109E              f3 10 9e fd 10      759 
10f0 0c5e 000c 0004 108d 1ff7 20 11010000 STD   $109E              fd 10 9e fc 10      766 
10f3 0c5e 000c 0004 108d 1ff7 20 11010000 LDD   $1098              fc 10 98 24 03      772 
10f6 0000 000c 0004 108d 1ff7 20 11010100 BCC   $10FB              24 03 c3 00 01      778 
10fb 0000 000c 0004 108d 1ff7 20 11010100 ADDD  $109C              f3 10 9c fd 10      781 
10fe 0000 000c 0004 108d 1ff7 20 11010100 STD   $109C              fd 10 9c fc 10      788 
1101 0000 000c 0004 108d 1ff7 20 11010100 LDD   $10A0              fc 10 a0 c3 00      794 
1104 0006 000c 0004 108d 1ff7 20 11010000 ADDD  #$0001             c3 00 01 10 83      800 
1107 0007 000c 0004 108d 1ff7 20 11010000 CMPD  #$15AE             10 83 15 ae 26      804 
110b 0007 000c 0004 108d 1ff7 20 11011001 BNE   $1112              26 05 8d 0c cc      809 
1112 0007 000c 0004 108d 1ff7 20 11011001 STD   $10A0              fd 10 a0 30 1f      812 
1115 0007 000c 0004 108d 1ff7 20 11010001 LEAX  -$1,X              30 1f 26 bd 35      818 
1117 0007 000b 0004 108d 1ff7 20 11010001 BNE   $10D6              26 bd 35 d6 34      823 
10d6 0007 000b 0004 108d 1ff7 20 11010001 CLRA                     4f e6 c0 f3 10      826 
10d7 0007 000b 0004 108d 1ff7 20 11010100 LDB   ,U+                e6 c0 f3 10 9a      828 
10d9 0065 000b 0004 108e 1ff7 20 11010000 ADDD  $109A              f3 10 9a fd 10      834 
10dc 037b 000b 0004 108e 1ff7 20 11010000 STD   $109A              fd 10 9a 24 09      841 
10df 037b 000b 0004 108e 1ff7 20 11010000 BCC   $10EA              24 09 fc 10 98      847 
10ea 037b 000b 0004 108e 1ff7 20 11010000 LDD   $109A              fc 10 9a f3 10      850 
10ed 037b 000b 0004 108e 1ff7 20 11010000 ADDD  $109E              f3 10 9e fd 10      856 
10f0 0fd9 000b 0004 108e 1ff7 20 11010000 STD   $109E              fd 10 9e fc 10      863 
10f3 0fd9 000b 0004 108e 1ff7 20 11010000 LDD   $1098              fc 10 98 24 03      869 
10f6 0000 000b 0004 108e 1ff7 20 11010100 BCC   $10FB              24 03 c3 00 01      875 
10fb 0000 000b 0004 108e 1ff7 20 11010100 ADDD  $109C              f3 10 9c fd 10      878 
10fe 0000 000b 0004 108e 1ff7 20 11010100 STD   $109C              fd 10 9c fc 10      885 
1101 0000 000b 0004 108e 1ff7 20 11010100 LDD   $10A0              fc 10 a0 c3 00      891 
1104 0007 000b 0004 108e 1ff7 20 11010000 ADDD  #$0001             c3 00 01 10 83      897 
1107 0008 000b 0004 108e 1ff7 20 11010000 CMPD  #$15AE             10 83 15 ae 26      901 
110b 0008 000b 0004 108e 1ff7 20 11011001 BNE   $1112              26 05 8d 0c cc      906 
1112 0008 000b 0004 108e 1ff7 20 11011001 STD   $10A0              fd 10 a0 30 1f      909 
1115 0008 000b 0004 108e 1ff7 20 11010001 LEAX  -$1,X              30 1f 26 bd 35      915 
1117 0008 000a 0004 108e 1ff7 20 11010001 BNE   $10D6              26 bd 35 d6 34      920 
10d6 0008 000a 0004 108e 1ff7 20 11010001 CLRA                     4f e6 c0 f3 10      923 
10d7 0008 000a 0004 108e 1ff7 20 11010100 LDB   ,U+                e6 c0 f3 10 9a      925 
10d9 0072 000a 0004 108f 1ff7 20 11010000 ADDD  $109A              f3 10 9a fd 10      931 
10dc 03ed 000a 0004 108f 1ff7 20 11010000 STD   $109A              fd 10 9a 24 09      938 
10df 03ed 000a 0004 108f 1ff7 20 11010000 BCC   $10EA              24 09 fc 10 98      944 
10ea 03ed 000a 0004 108f 1ff7 20 11010000 LDD   $109A              fc 10 9a f3 10      947 
10ed 03ed 000a 0004 108f 1ff7 20 11010000 ADDD  $109E              f3 10 9e fd 10      953 
10f0 13c6 000a 0004 108f 1ff7 20 11010000 STD   $109E              fd 10 9e fc 10      960 
10f3 13c6 000a 0004 108f 1ff7 20 11010000 LDD   $1098              fc 10 98 24 03      966 
10f6 0000 000a 0004 108f 1ff7 20 11010100 BCC   $10FB              24 03 c3 00 01      972 
10fb 0000 000a 0004 108f 1ff7 20 11010100 ADDD  $109C              f3 10 9c fd 10      975 
10fe 0000 000a 0004 108f 1ff7 20 11010100 STD   $109C              fd 10 9c fc 10      982 
1101 0000 000a 0004 108f 1ff7 20 11010100 LDD   $10A0              fc 10 a0 c3 00      988 
1104 0008 000a 0004 108f 1ff7 20 11010000 ADDD  #$0001             c3 00 01 10 83      994 
1107 0009 000a 0004 108f 1ff7 20 11010000 CMPD  #$15AE             10 83 15 ae 26      998 
110b 0009 000a 0004 108f 1ff7 20 11011001 BNE   $1112              26 05 8d 0c cc     1003 
1112 0009 000a 0004 108f 1ff7 20 11011001 STD   $10A0              fd 10 a0 30 1f     1006 
1115 0009 000a 0004 108f 1ff7 20 11010001 LEAX  -$1,X              30 1f 26 bd 35     1012 
1117 0009 0009 0004 108f 1ff7 20 11010001 BNE   $10D6              26 bd 35 d6 34     1017 
10d6 0009 0009 0004 108f 1ff7 20 11010001 CLRA                     4f e6 c0 f3 10     1020 
10d7 0009 0009 0004 108f 1ff7 20 11010100 LDB   ,U+                e6 c0 f3 10 9a     1022 
10d9 0061 0009 0004 1090 1ff7 20 11010000 ADDD  $109A              f3 10 9a fd 10     1028 
10dc 044e 0009 0004 1090 1ff7 20 11010000 STD   $109A              fd 10 9a 24 09     1035 
10df 044e 0009 0004 1090 1ff7 20 11010000 BCC   $10EA              24 09 fc 10 98     1041 
10ea 044e 0009 0004 1090 1ff7 20 11010000 LDD   $109A              fc 10 9a f3 10     1044 
10ed 044e 0009 0004 1090 1ff7 20 11010000 ADDD  $109E              f3 10 9e fd 10     1050 
10f0 1814 0009 0004 1090 1ff7 20 11010000 STD   $109E              fd 10 9e fc 10     1057 
10f3 1814 0009 0004 1090 1ff7 20 11010000 LDD   $1098              fc 10 98 24 03     1063 
10f6 0000 0009 0004 1090 1ff7 20 11010100 BCC   $10FB              24 03 c3 00 01     1069 
10fb 0000 0009 0004 1090 1ff7 20 11010100 ADDD  $109C              f3 10 9c fd 10     1072 
10fe 0000 0009 0004 1090 1ff7 20 11010100 STD   $109C              fd 10 9c fc 10     1079 
1101 0000 0009 0004 1090 1ff7 20 11010100 LDD   $10A0              fc 10 a0 c3 00     1085 
1104 0009 0009 0004 1090 1ff7 20 11010000 ADDD  #$0001             c3 00 01 10 83     1091 
1107 000a 0009 0004 1090 1ff7 20 11010000 CMPD  #$15AE             10 83 15 ae 26     1095 
110b 000a 0009 0004 1090 1ff7 20 11011001 BNE   $1112              26 05 8d 0c cc     1100 
1112 000a 0009 0004 1090 1ff7 20 11011001 STD   $10A0              fd 10 a0 30 1f     1103 
1115 000a 0009 0004 1090 1ff7 20 11010001 LEAX  -$1,X              30 1f 26 bd 35     1109 
1117 000a 0008 0004 1090 1ff7 20 11010001 BNE   $10D6              26 bd 35 d6 34     1114 
10d6 000a 0008 0004 1090 1ff7 20 11010001 CLRA                     4f e6 c0 f3 10     1117 
10d7 000a 0008 0004 1090 1ff7 20 11010100 LDB   ,U+                e6 c0 f3 10 9a     1119 
10d9 006e 0008 0004 1091 1ff7 20 11010000 ADDD  $109A              f3 10 9a fd 10     1125 
10dc 04bc 0008 0004 1091 1ff7 20 11010000 STD   $109A              fd 10 9a 24 09     1132 
10df 04bc 0008 0004 1091 1ff7 20 11010000 BCC   $10EA              24 09 fc 10 98     1138 
10ea 04bc 0008 0004 1091 1ff7 20 11010000 LDD   $109A              fc 10 9a f3 10     1141 
10ed 04bc 0008 0004 1091 1ff7 20 11010000 ADDD  $109E              f3 10 9e fd 10     1147 
10f0 1cd0 0008 0004 1091 1ff7 20 11010000 STD   $109E              fd 10 9e fc 10     1154 
10f3 1cd0 0008 0004 1091 1ff7 20 11010000 LDD   $1098              fc 10 98 24 03     1160 
10f6 0000 0008 0004 1091 1ff7 20 11010100 BCC   $10FB              24 03 c3 00 01     1166 
10fb 0000 0008 0004 1091 1ff7 20 11010100 ADDD  $109C              f3 10 9c fd 10     1169 
10fe 0000 0008 0004 1091 1ff7 20 11010100 STD   $109C              fd 10 9c fc 10     1176 
1101 0000 0008 0004 1091 1ff7 20 11010100 LDD   $10A0              fc 10 a0 c3 00     1182 
1104 000a 0008 0004 1091 1ff7 20 11010000 ADDD  #$0001             c3 00 01 10 83     1188 
1107 000b 0008 0004 1091 1ff7 20 11010000 CMPD  #$15AE             10 83 15 ae 26     1192 
110b 000b 0008 0004 1091 1ff7 20 11011001 BNE   $1112              26 05 8d 0c cc     1197 
1112 000b 0008 0004 1091 1ff7 20 11011001 STD   $10A0              fd 10 a0 30 1f     1200 
1115 000b 0008 0004 1091 1ff7 20 11010001 LEAX  -$1,X              30 1f 26 bd 35     1206 
1117 000b 0007 0004 1091 1ff7 20 11010001 BNE   $10D6              26 bd 35 d6 34     1211 
10d6 000b 0007 0004 1091 1ff7 20 11010001 CLRA                     4f e6 c0 f3 10     1214 
10d7 000b 0007 0004 1091 1ff7 20 11010100 LDB   ,U+                e6 c0 f3 10 9a     1216 
10d9 0064 0007 0004 1092 1ff7 20 11010000 ADDD  $109A              f3 10 9a fd 10     1222 
10dc 0520 0007 0004 1092 1ff7 20 11010000 STD   $109A              fd 10 9a 24 09     1229 
10df 0520 0007 0004 1092 1ff7 20 11010000 BCC   $10EA              24 09 fc 10 98     1235 
10ea 0520 0007 0004 1092 1ff7 20 11010000 LDD   $109A              fc 10 9a f3 10     1238 
10ed 0520 0007 0004 1092 1ff7 20 11010000 ADDD  $109E              f3 10 9e fd 10     1244 
10f0 21f0 0007 0004 1092 1ff7 20 11010000 STD   $109E              fd 10 9e fc 10     1251 
10f3 21f0 0007 0004 1092 1ff7 20 11010000 LDD   $1098              fc 10 98 24 03     1257 
10f6 0000 0007 0004 1092 1ff7 20 11010100 BCC   $10FB              24 03 c3 00 01     1263 
10fb 0000 0007 0004 1092 1ff7 20 11010100 ADDD  $109C              f3 10 9c fd 10     1266 
10fe 0000 0007 0004 1092 1ff7 20 11010100 STD   $109C              fd 10 9c fc 10     1273 
1101 0000 0007 0004 1092 1ff7 20 11010100 LDD   $10A0              fc 10 a0 c3 00     1279 
1104 000b 0007 0004 1092 1ff7 20 11010000 ADDD  #$0001             c3 00 01 10 83     1285 
1107 000c 0007 0004 1092 1ff7 20 11010000 CMPD  #$15AE             10 83 15 ae 26     1289 
110b 000c 0007 0004 1092 1ff7 20 11011001 BNE   $1112              26 05 8d 0c cc     1294 
1112 000c 0007 0004 1092 1ff7 20 11011001 STD   $10A0              fd 10 a0 30 1f     1297 
1115 000c 0007 0004 1092 1ff7 20 11010001 LEAX  -$1,X              30 1f 26 bd 35     1303 
1117 000c 0006 0004 1092 1ff7 20 11010001 BNE   $10D6              26 bd 35 d6 34     1308 
10d6 000c 0006 0004 1092 1ff7 20 11010001 CLRA                     4f e6 c0 f3 10     1311 
10d7 000c 0006 0004 1092 1ff7 20 11010100 LDB   ,U+                e6 c0 f3 10 9a     1313 
10d9 006f 0006 0004 1093 1ff7 20 11010000 ADDD  $109A              f3 10 9a fd 10     1319 
10dc 058f 0006 0004 1093 1ff7 20 11010000 STD   $109A              fd 10 9a 24 09     1326 
10df 058f 0006 0004 1093 1ff7 20 11010000 BCC   $10EA              24 09 fc 10 98     1332 
10ea 058f 0006 0004 1093 1ff7 20 11010000 LDD   $109A              fc 10 9a f3 10     1335 
10ed 058f 0006 0004 1093 1ff7 20 11010000 ADDD  $109E              f3 10 9e fd 10     1341 
10f0 277f 0006 0004 1093 1ff7 20 11010000 STD   $109E              fd 10 9e fc 10     1348 
10f3 277f 0006 0004 1093 1ff7 20 11010000 LDD   $1098              fc 10 98 24 03     1354 
10f6 0000 0006 0004 1093 1ff7 20 11010100 BCC   $10FB              24 03 c3 00 01     1360 
10fb 0000 0006 0004 1093 1ff7 20 11010100 ADDD  $109C              f3 10 9c fd 10     1363 
10fe 0000 0006 0004 1093 1ff7 20 11010100 STD   $109C              fd 10 9c fc 10     1370 
1101 0000 0006 0004 1093 1ff7 20 11010100 LDD   $10A0              fc 10 a0 c3 00     1376 
1104 000c 0006 0004 1093 1ff7 20 11010000 ADDD  #$0001             c3 00 01 10 83     1382 
1107 000d 0006 0004 1093 1ff7 20 11010000 CMPD  #$15AE             10 83 15 ae 26     1386 
110b 000d 0006 0004 1093 1ff7 20 11011001 BNE   $1112              26 05 8d 0c cc     1391 
1112 000d 0006 0004 1093 1ff7 20 11011001 STD   $10A0              fd 10 a0 30 1f     1394 
1115 000d 0006 0004 1093 1ff7 20 11010001 LEAX  -$1,X              30 1f 26 bd 35     1400 
1117 000d 0005 0004 1093 1ff7 20 11010001 BNE   $10D6              26 bd 35 d6 34     1405 
10d6 000d 0005 0004 1093 1ff7 20 11010001 CLRA                     4f e6 c0 f3 10     1408 
10d7 000d 0005 0004 1093 1ff7 20 11010100 LDB   ,U+                e6 c0 f3 10 9a     1410 
10d9 006d 0005 0004 1094 1ff7 20 11010000 ADDD  $109A              f3 10 9a fd 10     1416 
10dc 05fc 0005 0004 1094 1ff7 20 11010000 STD   $109A              fd 10 9a 24 09     1423 
10df 05fc 0005 0004 1094 1ff7 20 11010000 BCC   $10EA              24 09 fc 10 98     1429 
10ea 05fc 0005 0004 1094 1ff7 20 11010000 LDD   $109A              fc 10 9a f3 10     1432 
10ed 05fc 0005 0004 1094 1ff7 20 11010000 ADDD  $109E              f3 10 9e fd 10     1438 
10f0 2d7b 0005 0004 1094 1ff7 20 11010000 STD   $109E              fd 10 9e fc 10     1445 
10f3 2d7b 0005 0004 1094 1ff7 20 11010000 LDD   $1098              fc 10 98 24 03     1451 
10f6 0000 0005 0004 1094 1ff7 20 11010100 BCC   $10FB              24 03 c3 00 01     1457 
10fb 0000 0005 0004 1094 1ff7 20 11010100 ADDD  $109C              f3 10 9c fd 10     1460 
10fe 0000 0005 0004 1094 1ff7 20 11010100 STD   $109C              fd 10 9c fc 10     1467 
1101 0000 0005 0004 1094 1ff7 20 11010100 LDD   $10A0              fc 10 a0 c3 00     1473 
1104 000d 0005 0004 1094 1ff7 20 11010000 ADDD  #$0001             c3 00 01 10 83     1479 
1107 000e 0005 0004 1094 1ff7 20 11010000 CMPD  #$15AE             10 83 15 ae 26     1483 
110b 000e 0005 0004 1094 1ff7 20 11011001 BNE   $1112              26 05 8d 0c cc     1488 
1112 000e 0005 0004 1094 1ff7 20 11011001 STD   $10A0              fd 10 a0 30 1f     1491 
1115 000e 0005 0004 1094 1ff7 20 11010001 LEAX  -$1,X              30 1f 26 bd 35     1497 
1117 000e 0004 0004 1094 1ff7 20 11010001 BNE   $10D6              26 bd 35 d6 34     1502 
10d6 000e 0004 0004 1094 1ff7 20 11010001 CLRA                     4f e6 c0 f3 10     1505 
10d7 000e 0004 0004 1094 1ff7 20 11010100 LDB   ,U+                e6 c0 f3 10 9a     1507 
10d9 0064 0004 0004 1095 1ff7 20 11010000 ADDD  $109A              f3 10 9a fd 10     1513 
10dc 0660 0004 0004 1095 1ff7 20 11010000 STD   $109A              fd 10 9a 24 09     1520 
10df 0660 0004 0004 1095 1ff7 20 11010000 BCC   $10EA              24 09 fc 10 98     1526 
10ea 0660 0004 0004 1095 1ff7 20 11010000 LDD   $109A              fc 10 9a f3 10     1529 
10ed 0660 0004 0004 1095 1ff7 20 11010000 ADDD  $109E              f3 10 9e fd 10     1535 
10f0 33db 0004 0004 1095 1ff7 20 11010000 STD   $109E              fd 10 9e fc 10     1542 
10f3 33db 0004 0004 1095 1ff7 20 11010000 LDD   $1098              fc 10 98 24 03     1548 
10f6 0000 0004 0004 1095 1ff7 20 11010100 BCC   $10FB              24 03 c3 00 01     1554 
10fb 0000 0004 0004 1095 1ff7 20 11010100 ADDD  $109C              f3 10 9c fd 10     1557 
10fe 0000 0004 0004 1095 1ff7 20 11010100 STD   $109C              fd 10 9c fc 10     1564 
1101 0000 0004 0004 1095 1ff7 20 11010100 LDD   $10A0              fc 10 a0 c3 00     1570 
1104 000e 0004 0004 1095 1ff7 20 11010000 ADDD  #$0001             c3 00 01 10 83     1576 
1107 000f 0004 0004 1095 1ff7 20 11010000 CMPD  #$15AE             10 83 15 ae 26     1580 
110b 000f 0004 0004 1095 1ff7 20 11011001 BNE   $1112              26 05 8d 0c cc     1585 
1112 000f 0004 0004 1095 1ff7 20 11011001 STD   $10A0              fd 10 a0 30 1f     1588 
1115 000f 0004 0004 1095 1ff7 20 11010001 LEAX  -$1,X              30 1f 26 bd 35     1594 
1117 000f 0003 0004 1095 1ff7 20 11010001 BNE   $10D6              26 bd 35 d6 34     1599 
10d6 000f 0003 0004 1095 1ff7 20 11010001 CLRA                     4f e6 c0 f3 10     1602 
10d7 000f 0003 0004 1095 1ff7 20 11010100 LDB   ,U+                e6 c0 f3 10 9a     1604 
10d9 0061 0003 0004 1096 1ff7 20 11010000 ADDD  $109A              f3 10 9a fd 10     1610 
10dc 06c1 0003 0004 1096 1ff7 20 11010000 STD   $109A              fd 10 9a 24 09     1617 
10df 06c1 0003 0004 1096 1ff7 20 11010000 BCC   $10EA              24 09 fc 10 98     1623 
10ea 06c1 0003 0004 1096 1ff7 20 11010000 LDD   $109A              fc 10 9a f3 10     1626 
10ed 06c1 0003 0004 1096 1ff7 20 11010000 ADDD  $109E              f3 10 9e fd 10     1632 
10f0 3a9c 0003 0004 1096 1ff7 20 11010000 STD   $109E              fd 10 9e fc 10     1639 
10f3 3a9c 0003 0004 1096 1ff7 20 11010000 LDD   $1098              fc 10 98 24 03     1645 
10f6 0000 0003 0004 1096 1ff7 20 11010100 BCC   $10FB              24 03 c3 00 01     1651 
10fb 0000 0003 0004 1096 1ff7 20 11010100 ADDD  $109C              f3 10 9c fd 10     1654 
10fe 0000 0003 0004 1096 1ff7 20 11010100 STD   $109C              fd 10 9c fc 10     1661 
1101 0000 0003 0004 1096 1ff7 20 11010100 LDD   $10A0              fc 10 a0 c3 00     1667 
1104 000f 0003 0004 1096 1ff7 20 11010000 ADDD  #$0001             c3 00 01 10 83     1673 
1107 0010 0003 0004 1096 1ff7 20 11010000 CMPD  #$15AE             10 83 15 ae 26     1677 
110b 0010 0003 0004 1096 1ff7 20 11011001 BNE   $1112              26 05 8d 0c cc     1682 
1112 0010 0003 0004 1096 1ff7 20 11011001 STD   $10A0              fd 10 a0 30 1f     1685 
1115 0010 0003 0004 1096 1ff7 20 11010001 LEAX  -$1,X              30 1f 26 bd 35     1691 
1117 0010 0002 0004 1096 1ff7 20 11010001 BNE   $10D6              26 bd 35 d6 34     1696 
10d6 0010 0002 0004 1096 1ff7 20 11010001 CLRA                     4f e6 c0 f3 10     1699 
10d7 0010 0002 0004 1096 1ff7 20 11010100 LDB   ,U+                e6 c0 f3 10 9a     1701 
10d9 0074 0002 0004 1097 1ff7 20 11010000 ADDD  $109A              f3 10 9a fd 10     1707 
10dc 0735 0002 0004 1097 1ff7 20 11010000 STD   $109A              fd 10 9a 24 09     1714 
10df 0735 0002 0004 1097 1ff7 20 11010000 BCC   $10EA              24 09 fc 10 98     1720 
10ea 0735 0002 0004 1097 1ff7 20 11010000 LDD   $109A              fc 10 9a f3 10     1723 
10ed 0735 0002 0004 1097 1ff7 20 11010000 ADDD  $109E              f3 10 9e fd 10     1729 
10f0 41d1 0002 0004 1097 1ff7 20 11010000 STD   $109E              fd 10 9e fc 10     1736 
10f3 41d1 0002 0004 1097 1ff7 20 11010000 LDD   $1098              fc 10 98 24 03     1742 
10f6 0000 0002 0004 1097 1ff7 20 11010100 BCC   $10FB              24 03 c3 00 01     1748 
10fb 0000 0002 0004 1097 1ff7 20 11010100 ADDD  $109C              f3 10 9c fd 10     1751 
10fe 0000 0002 0004 1097 1ff7 20 11010100 STD   $109C              fd 10 9c fc 10     1758 
1101 0000 0002 0004 1097 1ff7 20 11010100 LDD   $10A0              fc 10 a0 c3 00     1764 
1104 0010 0002 0004 1097 1ff7 20 11010000 ADDD  #$0001             c3 00 01 10 83     1770 
1107 0011 0002 0004 1097 1ff7 20 11010000 CMPD  #$15AE             10 83 15 ae 26     1774 
110b 0011 0002 0004 1097 1ff7 20 11011001 BNE   $1112              26 05 8d 0c cc     1779 
1112 0011 0002 0004 1097 1ff7 20 11011001 STD   $10A0              fd 10 a0 30 1f     1782 
1115 0011 0002 0004 1097 1ff7 20 11010001 LEAX  -$1,X              30 1f 26 bd 35     1788 
1117 0011 0001 0004 1097 1ff7 20 11010001 BNE   $10D6              26 bd 35 d6 34     1793 
10d6 0011 0001 0004 1097 1ff7 20 11010001 CLRA                     4f e6 c0 f3 10     1796 
10d7 0011 0001 0004 1097 1ff7 20 11010100 LDB   ,U+                e6 c0 f3 10 9a     1798 
10d9 0061 0001 0004 1098 1ff7 20 11010000 ADDD  $109A              f3 10 9a fd 10     1804 
10dc 0796 0001 0004 1098 1ff7 20 11010000 STD   $109A              fd 10 9a 24 09     1811 
10df 0796 0001 0004 1098 1ff7 20 11010000 BCC   $10EA              24 09 fc 10 98     1817 
10ea 0796 0001 0004 1098 1ff7 20 11010000 LDD   $109A              fc 10 9a f3 10     1820 
10ed 0796 0001 0004 1098 1ff7 20 11010000 ADDD  $109E              f3 10 9e fd 10     1826 
10f0 4967 0001 0004 1098 1ff7 20 11010000 STD   $109E              fd 10 9e fc 10     1833 
10f3 4967 0001 0004 1098 1ff7 20 11010000 LDD   $1098              fc 10 98 24 03     1839 
10f6 0000 0001 0004 1098 1ff7 20 11010100 BCC   $10FB              24 03 c3 00 01     1845 
10fb 0000 0001 0004 1098 1ff7 20 11010100 ADDD  $109C              f3 10 9c fd 10     1848 
10fe 0000 0001 0004 1098 1ff7 20 11010100 STD   $109C              fd 10 9c fc 10     1855 
1101 0000 0001 0004 1098 1ff7 20 11010100 LDD   $10A0              fc 10 a0 c3 00     1861 
1104 0011 0001 0004 1098 1ff7 20 11010000 ADDD  #$0001             c3 00 01 10 83     1867 
1107 0012 0001 0004 1098 1ff7 20 11010000 CMPD  #$15AE             10 83 15 ae 26     1871 
110b 0012 0001 0004 1098 1ff7 20 11011001 BNE   $1112              26 05 8d 0c cc     1876 
1112 0012 0001 0004 1098 1ff7 20 11011001 STD   $10A0              fd 10 a0 30 1f     1879 
1115 0012 0001 0004 1098 1ff7 20 11010001 LEAX  -$1,X              30 1f 26 bd 35     1885 
1117 0012 0000 0004 1098 1ff7 20 11010101 BNE   $10D6              26 bd 35 d6 34     1890 
1119 0012 0000 0004 1098 1ff7 20 11010101 PULS  A,B,X,U,PC         35 d6 34 50 ce     1893 
1023 0001 0012 0004 1086 1fff 20 11010101 LDX   #$1086             8e 10 86 ce 10     1906 
1026 0001 1086 0004 1086 1fff 20 11010001 LDU   #$1087             ce 10 87 a6 80     1909 
1029 0001 1086 0004 1087 1fff 20 11010001 LDA   ,X+                a6 80 a7 c0 8c     1912 
102b 6a01 1087 0004 1087 1fff 20 11010001 STA   ,U+                a7 c0 8c 10 98     1918 
102d 6a01 1087 0004 1088 1fff 20 11010001 CMPX  #$1098             8c 10 98 26 f7     1924 
1030 6a01 1087 0004 1088 1fff 20 11011001 BNE   $1029              26 f7 bd 11 87     1928 
1029 6a01 1087 0004 1088 1fff 20 11011001 LDA   ,X+                a6 80 a7 c0 8c     1931 
102b 6a01 1088 0004 1088 1fff 20 11010001 STA   ,U+                a7 c0 8c 10 98     1937 
102d 6a01 1088 0004 1089 1fff 20 11010001 CMPX  #$1098             8c 10 98 26 f7     1943 
1030 6a01 1088 0004 1089 1fff 20 11011001 BNE   $1029              26 f7 bd 11 87     1947 
1029 6a01 1088 0004 1089 1fff 20 11011001 LDA   ,X+                a6 80 a7 c0 8c     1950 
102b 6a01 1089 0004 1089 1fff 20 11010001 STA   ,U+                a7 c0 8c 10 98     1956 
102d 6a01 1089 0004 108a 1fff 20 11010001 CMPX  #$1098             8c 10 98 26 f7     1962 
1030 6a01 1089 0004 108a 1fff 20 11011001 BNE   $1029              26 f7 bd 11 87     1966 
1029 6a01 1089 0004 108a 1fff 20 11011001 LDA   ,X+                a6 80 a7 c0 8c     1969 
102b 6a01 108a 0004 108a 1fff 20 11010001 STA   ,U+                a7 c0 8c 10 98     1975 
102d 6a01 108a 0004 108b 1fff 20 11010001 CMPX  #$1098             8c 10 98 26 f7     1981 
1030 6a01 108a 0004 108b 1fff 20 11011001 BNE   $1029              26 f7 bd 11 87     1985 
1029 6a01 108a 0004 108b 1fff 20 11011001 LDA   ,X+                a6 80 a7 c0 8c     1988 
102b 6a01 108b 0004 108b 1fff 20 11010001 STA   ,U+                a7 c0 8c 10 98     1994 
102d 6a01 108b 0004 108c 1fff 20 11010001 CMPX  #$1098             8c 10 98 26 f7     2000 
1030 6a01 108b 0004 108c 1fff 20 11011001 BNE   $1029              26 f7 bd 11 87     2004 
1029 6a01 108b 0004 108c 1fff 20 11011001 LDA   ,X+                a6 80 a7 c0 8c     2007 
102b 6a01 108c 0004 108c 1fff 20 11010001 STA   ,U+                a7 c0 8c 10 98     2013 
102d 6a01 108c 0004 108d 1fff 20 11010001 CMPX  #$1098             8c 10 98 26 f7     2019 
1030 6a01 108c 0004 108d 1fff 20 11011001 BNE   $1029              26 f7 bd 11 87     2023 
1029 6a01 108c 0004 108d 1fff 20 11011001 LDA   ,X+                a6 80 a7 c0 8c     2026 
102b 6a01 108d 0004 108d 1fff 20 11010001 STA   ,U+                a7 c0 8c 10 98     2032 
102d 6a01 108d 0004 108e 1fff 20 11010001 CMPX  #$1098             8c 10 98 26 f7     2038 
1030 6a01 108d 0004 108e 1fff 20 11011001 BNE   $1029              26 f7 bd 11 87     2042 
1029 6a01 108d 0004 108e 1fff 20 11011001 LDA   ,X+                a6 80 a7 c0 8c     2045 
102b 6a01 108e 0004 108e 1fff 20 11010001 STA   ,U+                a7 c0 8c 10 98     2051 
102d 6a01 108e 0004 108f 1fff 20 11010001 CMPX  #$1098             8c 10 98 26 f7     2057 
1030 6a01 108e 0004 108f 1fff 20 11011001 BNE   $1029              26 f7 bd 11 87     2061 
1029 6a01 108e 0004 108f 1fff 20 11011001 LDA   ,X+                a6 80 a7 c0 8c     2064 
102b 6a01 108f 0004 108f 1fff 20 11010001 STA   ,U+                a7 c0 8c 10 98     2070 
102d 6a01 108f 0004 1090 1fff 20 11010001 CMPX  #$1098             8c 10 98 26 f7     2076 
1030 6a01 108f 0004 1090 1fff 20 11011001 BNE   $1029              26 f7 bd 11 87     2080 
1029 6a01 108f 0004 1090 1fff 20 11011001 LDA   ,X+                a6 80 a7 c0 8c     2083 
102b 6a01 1090 0004 1090 1fff 20 11010001 STA   ,U+                a7 c0 8c 10 98     2089 
102d 6a01 1090 0004 1091 1fff 20 11010001 CMPX  #$1098             8c 10 98 26 f7     2095 
1030 6a01 1090 0004 1091 1fff 20 11011001 BNE   $1029              26 f7 bd 11 87     2099 
1029 6a01 1090 0004 1091 1fff 20 11011001 LDA   ,X+                a6 80 a7 c0 8c     2102 
102b 6a01 1091 0004 1091 1fff 20 11010001 STA   ,U+                a7 c0 8c 10 98     2108 
102d 6a01 1091 0004 1092 1fff 20 11010001 CMPX  #$1098             8c 10 98 26 f7     2114 
1030 6a01 1091 0004 1092 1fff 20 11011001 BNE   $1029              26 f7 bd 11 87     2118 
1029 6a01 1091 0004 1092 1fff 20 11011001 LDA   ,X+                a6 80 a7 c0 8c     2121 
102b 6a01 1092 0004 1092 1fff 20 11010001 STA   ,U+                a7 c0 8c 10 98     2127 
102d 6a01 1092 0004 1093 1fff 20 11010001 CMPX  #$1098             8c 10 98 26 f7     2133 
1030 6a01 1092 0004 1093 1fff 20 11011001 BNE   $1029              26 f7 bd 11 87     2137 
1029 6a01 1092 0004 1093 1fff 20 11011001 LDA   ,X+                a6 80 a7 c0 8c     2140 
102b 6a01 1093 0004 1093 1fff 20 11010001 STA   ,U+                a7 c0 8c 10 98     2146 
102d 6a01 1093 0004 1094 1fff 20 11010001 CMPX  #$1098             8c 10 98 26 f7     2152 
1030 6a01 1093 0004 1094 1fff 20 11011001 BNE   $1029              26 f7 bd 11 87     2156 
1029 6a01 1093 0004 1094 1fff 20 11011001 LDA   ,X+                a6 80 a7 c0 8c     2159 
102b 6a01 1094 0004 1094 1fff 20 11010001 STA   ,U+                a7 c0 8c 10 98     2165 
102d 6a01 1094 0004 1095 1fff 20 11010001 CMPX  #$1098             8c 10 98 26 f7     2171 
1030 6a01 1094 0004 1095 1fff 20 11011001 BNE   $1029              26 f7 bd 11 87     2175 
1029 6a01 1094 0004 1095 1fff 20 11011001 LDA   ,X+                a6 80 a7 c0 8c     2178 
102b 6a01 1095 0004 1095 1fff 20 11010001 STA   ,U+                a7 c0 8c 10 98     2184 
102d 6a01 1095 0004 1096 1fff 20 11010001 CMPX  #$1098             8c 10 98 26 f7     2190 
1030 6a01 1095 0004 1096 1fff 20 11011001 BNE   $1029              26 f7 bd 11 87     2194 
1029 6a01 1095 0004 1096 1fff 20 11011001 LDA   ,X+                a6 80 a7 c0 8c     2197 
102b 6a01 1096 0004 1096 1fff 20 11010001 STA   ,U+                a7 c0 8c 10 98     2203 
102d 6a01 1096 0004 1097 1fff 20 11010001 CMPX  #$1098             8c 10 98 26 f7     2209 
1030 6a01 1096 0004 1097 1fff 20 11011001 BNE   $1029              26 f7 bd 11 87     2213 
1029 6a01 1096 0004 1097 1fff 20 11011001 LDA   ,X+                a6 80 a7 c0 8c     2216 
102b 6a01 1097 0004 1097 1fff 20 11010001 STA   ,U+                a7 c0 8c 10 98     2222 
102d 6a01 1097 0004 1098 1fff 20 11010001 CMPX  #$1098             8c 10 98 26 f7     2228 
1030 6a01 1097 0004 1098 1fff 20 11011001 BNE   $1029              26 f7 bd 11 87     2232 
1029 6a01 1097 0004 1098 1fff 20 11011001 LDA   ,X+                a6 80 a7 c0 8c     2235 
102b 6a01 1098 0004 1098 1fff 20 11010001 STA   ,U+                a7 c0 8c 10 98     2241 
102d 6a01 1098 0004 1099 1fff 20 11010001 CMPX  #$1098             8c 10 98 26 f7     2247 
1030 6a01 1098 0004 1099 1fff 20 11010100 BNE   $1029              26 f7 bd 11 87     2251 
1032 6a01 1098 0004 1099 1fff 20 11010100 JSR   $1187              bd 11 87 8e 10     2254 
1187 6a01 1098 0004 1099 1ffd 20 11010100 LDD   $10A0              fc 10 a0 27 02     2262 
118a 0012 1098 0004 1099 1ffd 20 11010000 BEQ   $118E              27 02 8d 8d fc     2268 
118c 0012 1098 0004 1099 1ffd 20 11010000 BSR   $111B              8d 8d fc 10 9e     2271 
111b 0012 1098 0004 1099 1ffb 20 11010000 PSHS  U,X                34 50 ce 10 98     2278 
111d 0012 1098 0004 1099 1ff7 20 11010000 LDU   #$1098             ce 10 98 8e ff     2287 
1120 0012 1098 0004 1098 1ff7 20 11010000 LDX   #$FFF1             8e ff f1 8d 07     2290 
1123 0012 fff1 0004 1098 1ff7 20 11011000 BSR   $112C              8d 07 ce 10 9c     2293 
112c 0012 fff1 0004 1098 1ff5 20 11011000 PSHS  X,B,A              34 16 9f 02 8e     2300 
112e 0012 fff1 0004 1098 1ff1 20 11011000 STX   <$02               9f 02 8e 00 00     2309 
1130 0012 fff1 0004 1098 1ff1 20 11011000 LDX   #$0000             8e 00 00 9f 00     2314 
1133 0012 0000 0004 1098 1ff1 20 11010100 STX   <$00               9f 00 ec c4 10     2317 
1135 0012 0000 0004 1098 1ff1 20 11010100 LDD   ,U                 ec c4 10 93 00     2322 
1137 6a00 0000 0004 1098 1ff1 20 11010000 CMPD  <$00               10 93 00 22 0b     2327 
113a 6a00 0000 0004 1098 1ff1 20 11010000 BHI   $1147              22 0b 25 15 ec     2334 
1147 6a00 0000 0004 1098 1ff1 20 11010000 ASL   <$03               08 03 09 02 09     2337 
1149 6a00 0000 0004 1098 1ff1 20 11011001 ROL   <$02               09 02 09 01 09     2343 
114b 6a00 0000 0004 1098 1ff1 20 11011001 ROL   <$01               09 01 09 00 30     2349 
114d 6a00 0000 0004 1098 1ff1 20 11010000 ROL   <$00               09 00 30 01 20     2355 
114f 6a00 0000 0004 1098 1ff1 20 11010100 LEAX  $1,X               30 01 20 e2 8c     2361 
1151 6a00 0001 0004 1098 1ff1 20 11010000 BRA   $1135              20 e2 8c 00 00     2366 
1135 6a00 0001 0004 1098 1ff1 20 11010000 LDD   ,U                 ec c4 10 93 00     2369 
1137 6a00 0001 0004 1098 1ff1 20 11010000 CMPD  <$00               10 93 00 22 0b     2374 
113a 6a00 0001 0004 1098 1ff1 20 11010000 BHI   $1147              22 0b 25 15 ec     2381 
1147 6a00 0001 0004 1098 1ff1 20 11010000 ASL   <$03               08 03 09 02 09     2384 
1149 6a00 0001 0004 1098 1ff1 20 11011001 ROL   <$02               09 02 09 01 09     2390 
114b 6a00 0001 0004 1098 1ff1 20 11011001 ROL   <$01               09 01 09 00 30     2396 
114d 6a00 0001 0004 1098 1ff1 20 11010000 ROL   <$00               09 00 30 01 20     2402 
114f 6a00 0001 0004 1098 1ff1 20 11010100 LEAX  $1,X               30 01 20 e2 8c     2408 
1151 6a00 0002 0004 1098 1ff1 20 11010000 BRA   $1135              20 e2 8c 00 00     2413 
1135 6a00 0002 0004 1098 1ff1 20 11010000 LDD   ,U                 ec c4 10 93 00     2416 
1137 6a00 0002 0004 1098 1ff1 20 11010000 CMPD  <$00               10 93 00 22 0b     2421 
113a 6a00 0002 0004 1098 1ff1 20 11010000 BHI   $1147              22 0b 25 15 ec     2428 
1147 6a00 0002 0004 1098 1ff1 20 11010000 ASL   <$03               08 03 09 02 09     2431 
1149 6a00 0002 0004 1098 1ff1 20 11011001 ROL   <$02               09 02 09 01 09     2437 
114b 6a00 0002 0004 1098 1ff1 20 11011001 ROL   <$01               09 01 09 00 30     2443 
114d 6a00 0002 0004 1098 1ff1 20 11010000 ROL   <$00               09 00 30 01 20     2449 
114f 6a00 0002 0004 1098 1ff1 20 11010100 LEAX  $1,X               30 01 20 e2 8c     2455 
1151 6a00 0003 0004 1098 1ff1 20 11010000 BRA   $1135              20 e2 8c 00 00     2460 
1135 6a00 0003 0004 1098 1ff1 20 11010000 LDD   ,U                 ec c4 10 93 00     2463 
1137 6a00 0003 0004 1098 1ff1 20 11010000 CMPD  <$00               10 93 00 22 0b     2468 
113a 6a00 0003 0004 1098 1ff1 20 11010000 BHI   $1147              22 0b 25 15 ec     2475 
1147 6a00 0003 0004 1098 1ff1 20 11010000 ASL   <$03               08 03 09 02 09     2478 
1149 6a00 0003 0004 1098 1ff1 20 11010011 ROL   <$02               09 02 09 01 09     2484 
114b 6a00 0003 0004 1098 1ff1 20 11011001 ROL   <$01               09 01 09 00 30     2490 
114d 6a00 0003 0004 1098 1ff1 20 11010000 ROL   <$00               09 00 30 01 20     2496 
114f 6a00 0003 0004 1098 1ff1 20 11010100 LEAX  $1,X               30 01 20 e2 8c     2502 
1151 6a00 0004 0004 1098 1ff1 20 11010000 BRA   $1135              20 e2 8c 00 00     2507 
1135 6a00 0004 0004 1098 1ff1 20 11010000 LDD   ,U                 ec c4 10 93 00     2510 
1137 6a00 0004 0004 1098 1ff1 20 11010000 CMPD  <$00               10 93 00 22 0b     2515 
113a 6a00 0004 0004 1098 1ff1 20 11010000 BHI   $1147              22 0b 25 15 ec     2522 
1147 6a00 0004 0004 1098 1ff1 20 11010000 ASL   <$03               08 03 09 02 09     2525 
1149 6a00 0004 0004 1098 1ff1 20 11010000 ROL   <$02               09 02 09 01 09     2531 
114b 6a00 0004 0004 1098 1ff1 20 11011001 ROL   <$01               09 01 09 00 30     2537 
114d 6a00 0004 0004 1098 1ff1 20 11010000 ROL   <$00               09 00 30 01 20     2543 
114f 6a00 0004 0004 1098 1ff1 20 11010100 LEAX  $1,X               30 01 20 e2 8c     2549 
1151 6a00 0005 0004 1098 1ff1 20 11010000 BRA   $1135              20 e2 8c 00 00     2554 
1135 6a00 0005 0004 1098 1ff1 20 11010000 LDD   ,U                 ec c4 10 93 00     2557 
1137 6a00 0005 0004 1098 1ff1 20 11010000 CMPD  <$00               10 93 00 22 0b     2562 
113a 6a00 0005 0004 1098 1ff1 20 11010000 BHI   $1147              22 0b 25 15 ec     2569 
1147 6a00 0005 0004 1098 1ff1 20 11010000 ASL   <$03               08 03 09 02 09     2572 
1149 6a00 0005 0004 1098 1ff1 20 11010000 ROL   <$02               09 02 09 01 09     2578 
114b 6a00 0005 0004 1098 1ff1 20 11011001 ROL   <$01               09 01 09 00 30     2584 
114d 6a00 0005 0004 1098 1ff1 20 11010000 ROL   <$00               09 00 30 01 20     2590 
114f 6a00 0005 0004 1098 1ff1 20 11010100 LEAX  $1,X               30 01 20 e2 8c     2596 
1151 6a00 0006 0004 1098 1ff1 20 11010000 BRA   $1135              20 e2 8c 00 00     2601 
1135 6a00 0006 0004 1098 1ff1 20 11010000 LDD   ,U                 ec c4 10 93 00     2604 
1137 6a00 0006 0004 1098 1ff1 20 11010000 CMPD  <$00               10 93 00 22 0b     2609 
113a 6a00 0006 0004 1098 1ff1 20 11010000 BHI   $1147              22 0b 25 15 ec     2616 
1147 6a00 0006 0004 1098 1ff1 20 11010000 ASL   <$03               08 03 09 02 09     2619 
1149 6a00 0006 0004 1098 1ff1 20 11011010 ROL   <$02               09 02 09 01 09     2625 
114b 6a00 0006 0004 1098 1ff1 20 11011001 ROL   <$01               09 01 09 00 30     2631 
114d 6a00 0006 0004 1098 1ff1 20 11010000 ROL   <$00               09 00 30 01 20     2637 
114f 6a00 0006 0004 1098 1ff1 20 11010100 LEAX  $1,X               30 01 20 e2 8c     2643 
1151 6a00 0007 0004 1098 1ff1 20 11010000 BRA   $1135              20 e2 8c 00 00     2648 
1135 6a00 0007 0004 1098 1ff1 20 11010000 LDD   ,U                 ec c4 10 93 00     2651 
1137 6a00 0007 0004 1098 1ff1 20 11010000 CMPD  <$00               10 93 00 22 0b     2656 
113a 6a00 0007 0004 1098 1ff1 20 11010000 BHI   $1147              22 0b 25 15 ec     2663 
1147 6a00 0007 0004 1098 1ff1 20 11010000 ASL   <$03               08 03 09 02 09     2666 
1149 6a00 0007 0004 1098 1ff1 20 11010111 ROL   <$02               09 02 09 01 09     2672 
114b 6a00 0007 0004 1098 1ff1 20 11011001 ROL   <$01               09 01 09 00 30     2678 
114d 6a00 0007 0004 1098 1ff1 20 11011010 ROL   <$00               09 00 30 01 20     2684 
114f 6a00 0007 0004 1098 1ff1 20 11010100 LEAX  $1,X               30 01 20 e2 8c     2690 
1151 6a00 0008 0004 1098 1ff1 20 11010000 BRA   $1135              20 e2 8c 00 00     2695 
1135 6a00 0008 0004 1098 1ff1 20 11010000 LDD   ,U                 ec c4 10 93 00     2698 
1137 6a00 0008 0004 1098 1ff1 20 11010000 CMPD  <$00               10 93 00 22 0b     2703 
113a 6a00 0008 0004 1098 1ff1 20 11010000 BHI   $1147              22 0b 25 15 ec     2710 
1147 6a00 0008 0004 1098 1ff1 20 11010000 ASL   <$03               08 03 09 02 09     2713 
1149 6a00 0008 0004 1098 1ff1 20 11010100 ROL   <$02               09 02 09 01 09     2719 
114b 6a00 0008 0004 1098 1ff1 20 11011001 ROL   <$01               09 01 09 00 30     2725 
114d 6a00 0008 0004 1098 1ff1 20 11011001 ROL   <$00               09 00 30 01 20     2731 
114f 6a00 0008 0004 1098 1ff1 20 11010000 LEAX  $1,X               30 01 20 e2 8c     2737 
1151 6a00 0009 0004 1098 1ff1 20 11010000 BRA   $1135              20 e2 8c 00 00     2742 
1135 6a00 0009 0004 1098 1ff1 20 11010000 LDD   ,U                 ec c4 10 93 00     2745 
1137 6a00 0009 0004 1098 1ff1 20 11010000 CMPD  <$00               10 93 00 22 0b     2750 
113a 6a00 0009 0004 1098 1ff1 20 11010000 BHI   $1147              22 0b 25 15 ec     2757 
1147 6a00 0009 0004 1098 1ff1 20 11010000 ASL   <$03               08 03 09 02 09     2760 
1149 6a00 0009 0004 1098 1ff1 20 11010100 ROL   <$02               09 02 09 01 09     2766 
114b 6a00 0009 0004 1098 1ff1 20 11011001 ROL   <$01               09 01 09 00 30     2772 
114d 6a00 0009 0004 1098 1ff1 20 11011001 ROL   <$00               09 00 30 01 20     2778 
114f 6a00 0009 0004 1098 1ff1 20 11010000 LEAX  $1,X               30 01 20 e2 8c     2784 
1151 6a00 000a 0004 1098 1ff1 20 11010000 BRA   $1135              20 e2 8c 00 00     2789 
1135 6a00 000a 0004 1098 1ff1 20 11010000 LDD   ,U                 ec c4 10 93 00     2792 
1137 6a00 000a 0004 1098 1ff1 20 11010000 CMPD  <$00               10 93 00 22 0b     2797 
113a 6a00 000a 0004 1098 1ff1 20 11010000 BHI   $1147              22 0b 25 15 ec     2804 
1147 6a00 000a 0004 1098 1ff1 20 11010000 ASL   <$03               08 03 09 02 09     2807 
1149 6a00 000a 0004 1098 1ff1 20 11010100 ROL   <$02               09 02 09 01 09     2813 
114b 6a00 000a 0004 1098 1ff1 20 11011001 ROL   <$01               09 01 09 00 30     2819 
114d 6a00 000a 0004 1098 1ff1 20 11011001 ROL   <$00               09 00 30 01 20     2825 
114f 6a00 000a 0004 1098 1ff1 20 11010000 LEAX  $1,X               30 01 20 e2 8c     2831 
1151 6a00 000b 0004 1098 1ff1 20 11010000 BRA   $1135              20 e2 8c 00 00     2836 
1135 6a00 000b 0004 1098 1ff1 20 11010000 LDD   ,U                 ec c4 10 93 00     2839 
1137 6a00 000b 0004 1098 1ff1 20 11010000 CMPD  <$00               10 93 00 22 0b     2844 
113a 6a00 000b 0004 1098 1ff1 20 11010000 BHI   $1147              22 0b 25 15 ec     2851 
1147 6a00 000b 0004 1098 1ff1 20 11010000 ASL   <$03               08 03 09 02 09     2854 
1149 6a00 000b 0004 1098 1ff1 20 11010100 ROL   <$02               09 02 09 01 09     2860 
114b 6a00 000b 0004 1098 1ff1 20 11010011 ROL   <$01               09 01 09 00 30     2866 
114d 6a00 000b 0004 1098 1ff1 20 11011001 ROL   <$00               09 00 30 01 20     2872 
114f 6a00 000b 0004 1098 1ff1 20 11010000 LEAX  $1,X               30 01 20 e2 8c     2878 
1151 6a00 000c 0004 1098 1ff1 20 11010000 BRA   $1135              20 e2 8c 00 00     2883 
1135 6a00 000c 0004 1098 1ff1 20 11010000 LDD   ,U                 ec c4 10 93 00     2886 
1137 6a00 000c 0004 1098 1ff1 20 11010000 CMPD  <$00               10 93 00 22 0b     2891 
113a 6a00 000c 0004 1098 1ff1 20 11010000 BHI   $1147              22 0b 25 15 ec     2898 
1147 6a00 000c 0004 1098 1ff1 20 11010000 ASL   <$03               08 03 09 02 09     2901 
1149 6a00 000c 0004 1098 1ff1 20 11010100 ROL   <$02               09 02 09 01 09     2907 
114b 6a00 000c 0004 1098 1ff1 20 11010000 ROL   <$01               09 01 09 00 30     2913 
114d 6a00 000c 0004 1098 1ff1 20 11011001 ROL   <$00               09 00 30 01 20     2919 
114f 6a00 000c 0004 1098 1ff1 20 11010000 LEAX  $1,X               30 01 20 e2 8c     2925 
1151 6a00 000d 0004 1098 1ff1 20 11010000 BRA   $1135              20 e2 8c 00 00     2930 
1135 6a00 000d 0004 1098 1ff1 20 11010000 LDD   ,U                 ec c4 10 93 00     2933 
1137 6a00 000d 0004 1098 1ff1 20 11010000 CMPD  <$00               10 93 00 22 0b     2938 
113a 6a00 000d 0004 1098 1ff1 20 11010000 BHI   $1147              22 0b 25 15 ec     2945 
1147 6a00 000d 0004 1098 1ff1 20 11010000 ASL   <$03               08 03 09 02 09     2948 
1149 6a00 000d 0004 1098 1ff1 20 11010100 ROL   <$02               09 02 09 01 09     2954 
114b 6a00 000d 0004 1098 1ff1 20 11010000 ROL   <$01               09 01 09 00 30     2960 
114d 6a00 000d 0004 1098 1ff1 20 11011001 ROL   <$00               09 00 30 01 20     2966 
114f 6a00 000d 0004 1098 1ff1 20 11010000 LEAX  $1,X               30 01 20 e2 8c     2972 
1151 6a00 000e 0004 1098 1ff1 20 11010000 BRA   $1135              20 e2 8c 00 00     2977 
1135 6a00 000e 0004 1098 1ff1 20 11010000 LDD   ,U                 ec c4 10 93 00     2980 
1137 6a00 000e 0004 1098 1ff1 20 11010000 CMPD  <$00               10 93 00 22 0b     2985 
113a 6a00 000e 0004 1098 1ff1 20 11010000 BHI   $1147              22 0b 25 15 ec     2992 
1147 6a00 000e 0004 1098 1ff1 20 11010000 ASL   <$03               08 03 09 02 09     2995 
1149 6a00 000e 0004 1098 1ff1 20 11010100 ROL   <$02               09 02 09 01 09     3001 
114b 6a00 000e 0004 1098 1ff1 20 11011010 ROL   <$01               09 01 09 00 30     3007 
114d 6a00 000e 0004 1098 1ff1 20 11011001 ROL   <$00               09 00 30 01 20     3013 
114f 6a00 000e 0004 1098 1ff1 20 11010000 LEAX  $1,X               30 01 20 e2 8c     3019 
1151 6a00 000f 0004 1098 1ff1 20 11010000 BRA   $1135              20 e2 8c 00 00     3024 
1135 6a00 000f 0004 1098 1ff1 20 11010000 LDD   ,U                 ec c4 10 93 00     3027 
1137 6a00 000f 0004 1098 1ff1 20 11010000 CMPD  <$00               10 93 00 22 0b     3032 
113a 6a00 000f 0004 1098 1ff1 20 11011001 BHI   $1147              22 0b 25 15 ec     3039 
113c 6a00 000f 0004 1098 1ff1 20 11011001 BCS   $1153              25 15 ec 42 10     3042 
1153 6a00 000f 0004 1098 1ff1 20 11011001 CMPX  #$0000             8c 00 00 27 2d     3045 
1156 6a00 000f 0004 1098 1ff1 20 11010000 BEQ   $1185              27 2d 04 00 06     3049 
1158 6a00 000f 0004 1098 1ff1 20 11010000 LSR   <$00               04 00 06 01 06     3052 
115a 6a00 000f 0004 1098 1ff1 20 11010001 ROR   <$01               06 01 06 02 06     3058 
115c 6a00 000f 0004 1098 1ff1 20 11011000 ROR   <$02               06 02 06 03 dc     3064 
115e 6a00 000f 0004 1098 1ff1 20 11010000 ROR   <$03               06 03 dc 00 10     3070 
1160 6a00 000f 0004 1098 1ff1 20 11010100 LDD   <$00               dc 00 10 a3 c4     3076 
1162 3ffc 000f 0004 1098 1ff1 20 11010000 CMPD  ,U                 10 a3 c4 25 09     3081 
1165 3ffc 000f 0004 1098 1ff1 20 11011001 BCS   $1170              25 09 22 18 dc     3088 
1170 3ffc 000f 0004 1098 1ff1 20 11011001 LDD   $2,U               ec 42 93 02 ed     3091 
1172 0796 000f 0004 1098 1ff1 20 11010001 SUBD  <$02               93 02 ed 42 ec     3097 
1174 c796 000f 0004 1098 1ff1 20 11011001 STD   $2,U               ed 42 ec c4 24     3103 
1176 c796 000f 0004 1098 1ff1 20 11011001 LDD   ,U                 ec c4 24 03 83     3109 
1178 6a00 000f 0004 1098 1ff1 20 11010001 BCC   $117D              24 03 83 00 01     3114 
117a 6a00 000f 0004 1098 1ff1 20 11010001 SUBD  #$0001             83 00 01 93 00     3117 
117d 69ff 000f 0004 1098 1ff1 20 11010000 SUBD  <$00               93 00 ed c4 30     3121 
117f 2a03 000f 0004 1098 1ff1 20 11010000 STD   ,U                 ed c4 30 1f 26     3127 
1181 2a03 000f 0004 1098 1ff1 20 11010000 LEAX  -$1,X              30 1f 26 d3 35     3132 
1183 2a03 000e 0004 1098 1ff1 20 11010000 BNE   $1158              26 d3 35 96 fc     3137 
1158 2a03 000e 0004 1098 1ff1 20 11010000 LSR   <$00               04 00 06 01 06     3140 
115a 2a03 000e 0004 1098 1ff1 20 11010001 ROR   <$01               06 01 06 02 06     3146 
115c 2a03 000e 0004 1098 1ff1 20 11011000 ROR   <$02               06 02 06 03 dc     3152 
115e 2a03 000e 0004 1098 1ff1 20 11010000 ROR   <$03               06 03 dc 00 10     3158 
1160 2a03 000e 0004 1098 1ff1 20 11010100 LDD   <$00               dc 00 10 a3 c4     3164 
1162 1ffe 000e 0004 1098 1ff1 20 11010000 CMPD  ,U                 10 a3 c4 25 09     3169 
1165 1ffe 000e 0004 1098 1ff1 20 11011001 BCS   $1170              25 09 22 18 dc     3176 
1170 1ffe 000e 0004 1098 1ff1 20 11011001 LDD   $2,U               ec 42 93 02 ed     3179 
1172 c796 000e 0004 1098 1ff1 20 11011001 SUBD  <$02               93 02 ed 42 ec     3185 
1174 a796 000e 0004 1098 1ff1 20 11011000 STD   $2,U               ed 42 ec c4 24     3191 
1176 a796 000e 0004 1098 1ff1 20 11011000 LDD   ,U                 ec c4 24 03 83     3197 
1178 2a03 000e 0004 1098 1ff1 20 11010000 BCC   $117D              24 03 83 00 01     3202 
117d 2a03 000e 0004 1098 1ff1 20 11010000 SUBD  <$00               93 00 ed c4 30     3205 
117f 0a05 000e 0004 1098 1ff1 20 11010000 STD   ,U                 ed c4 30 1f 26     3211 
1181 0a05 000e 0004 1098 1ff1 20 11010000 LEAX  -$1,X              30 1f 26 d3 35     3216 
1183 0a05 000d 0004 1098 1ff1 20 11010000 BNE   $1158              26 d3 35 96 fc     3221 
1158 0a05 000d 0004 1098 1ff1 20 11010000 LSR   <$00               04 00 06 01 06     3224 
115a 0a05 000d 0004 1098 1ff1 20 11010001 ROR   <$01               06 01 06 02 06     3230 
115c 0a05 000d 0004 1098 1ff1 20 11011000 ROR   <$02               06 02 06 03 dc     3236 
115e 0a05 000d 0004 1098 1ff1 20 11010000 ROR   <$03               06 03 dc 00 10     3242 
1160 0a05 000d 0004 1098 1ff1 20 11010100 LDD   <$00               dc 00 10 a3 c4     3248 
1162 0fff 000d 0004 1098 1ff1 20 11010000 CMPD  ,U                 10 a3 c4 25 09     3253 
1165 0fff 000d 0004 1098 1ff1 20 11010000 BCS   $1170              25 09 22 18 dc     3260 
1167 0fff 000d 0004 1098 1ff1 20 11010000 BHI   $1181              22 18 dc 02 10     3263 
1181 0fff 000d 0004 1098 1ff1 20 11010000 LEAX  -$1,X              30 1f 26 d3 35     3266 
1183 0fff 000c 0004 1098 1ff1 20 11010000 BNE   $1158              26 d3 35 96 fc     3271 
1158 0fff 000c 0004 1098 1ff1 20 11010000 LSR   <$00               04 00 06 01 06     3274 
115a 0fff 000c 0004 1098 1ff1 20 11010001 ROR   <$01               06 01 06 02 06     3280 
115c 0fff 000c 0004 1098 1ff1 20 11011001 ROR   <$02               06 02 06 03 dc     3286 
115e 0fff 000c 0004 1098 1ff1 20 11011000 ROR   <$03               06 03 dc 00 10     3292 
1160 0fff 000c 0004 1098 1ff1 20 11010100 LDD   <$00               dc 00 10 a3 c4     3298 
1162 07ff 000c 0004 1098 1ff1 20 11010000 CMPD  ,U                 10 a3 c4 25 09     3303 
1165 07ff 000c 0004 1098 1ff1 20 11011001 BCS   $1170              25 09 22 18 dc     3310 
1170 07ff 000c 0004 1098 1ff1 20 11011001 LDD   $2,U               ec 42 93 02 ed     3313 
1172 a796 000c 0004 1098 1ff1 20 11011001 SUBD  <$02               93 02 ed 42 ec     3319 
1174 1f96 000c 0004 1098 1ff1 20 11010000 STD   $2,U               ed 42 ec c4 24     3325 
1176 1f96 000c 0004 1098 1ff1 20 11010000 LDD   ,U                 ec c4 24 03 83     3331 
1178 0a05 000c 0004 1098 1ff1 20 11010000 BCC   $117D              24 03 83 00 01     3336 
117d 0a05 000c 0004 1098 1ff1 20 11010000 SUBD  <$00               93 00 ed c4 30     3339 
117f 0206 000c 0004 1098 1ff1 20 11010000 STD   ,U                 ed c4 30 1f 26     3345 
1181 0206 000c 0004 1098 1ff1 20 11010000 LEAX  -$1,X              30 1f 26 d3 35     3350 
1183 0206 000b 0004 1098 1ff1 20 11010000 BNE   $1158              26 d3 35 96 fc     3355 
1158 0206 000b 0004 1098 1ff1 20 11010000 LSR   <$00               04 00 06 01 06     3358 
115a 0206 000b 0004 1098 1ff1 20 11010001 ROR   <$01               06 01 06 02 06     3364 
115c 0206 000b 0004 1098 1ff1 20 11011001 ROR   <$02               06 02 06 03 dc     3370 
115e 0206 000b 0004 1098 1ff1 20 11011000 ROR   <$03               06 03 dc 00 10     3376 
1160 0206 000b 0004 1098 1ff1 20 11010100 LDD   <$00               dc 00 10 a3 c4     3382 
1162 03ff 000b 0004 1098 1ff1 20 11010000 CMPD  ,U                 10 a3 c4 25 09     3387 
1165 03ff 000b 0004 1098 1ff1 20 11010000 BCS   $1170              25 09 22 18 dc     3394 
1167 03ff 000b 0004 1098 1ff1 20 11010000 BHI   $1181              22 18 dc 02 10     3397 
1181 03ff 000b 0004 1098 1ff1 20 11010000 LEAX  -$1,X              30 1f 26 d3 35     3400 
1183 03ff 000a 0004 1098 1ff1 20 11010000 BNE   $1158              26 d3 35 96 fc     3405 
1158 03ff 000a 0004 1098 1ff1 20 11010000 LSR   <$00               04 00 06 01 06     3408 
115a 03ff 000a 0004 1098 1ff1 20 11010001 ROR   <$01               06 01 06 02 06     3414 
115c 03ff 000a 0004 1098 1ff1 20 11011001 ROR   <$02               06 02 06 03 dc     3420 
115e 03ff 000a 0004 1098 1ff1 20 11011000 ROR   <$03               06 03 dc 00 10     3426 
1160 03ff 000a 0004 1098 1ff1 20 11010100 LDD   <$00               dc 00 10 a3 c4     3432 
1162 01ff 000a 0004 1098 1ff1 20 11010000 CMPD  ,U                 10 a3 c4 25 09     3437 
1165 01ff 000a 0004 1098 1ff1 20 11011001 BCS   $1170              25 09 22 18 dc     3444 
1170 01ff 000a 0004 1098 1ff1 20 11011001 LDD   $2,U               ec 42 93 02 ed     3447 
1172 1f96 000a 0004 1098 1ff1 20 11010001 SUBD  <$02               93 02 ed 42 ec     3453 
1174 3d96 000a 0004 1098 1ff1 20 11010001 STD   $2,U               ed 42 ec c4 24     3459 
1176 3d96 000a 0004 1098 1ff1 20 11010001 LDD   ,U                 ec c4 24 03 83     3465 
1178 0206 000a 0004 1098 1ff1 20 11010001 BCC   $117D              24 03 83 00 01     3470 
117a 0206 000a 0004 1098 1ff1 20 11010001 SUBD  #$0001             83 00 01 93 00     3473 
117d 0205 000a 0004 1098 1ff1 20 11010000 SUBD  <$00               93 00 ed c4 30     3477 
117f 0006 000a 0004 1098 1ff1 20 11010000 STD   ,U                 ed c4 30 1f 26     3483 
1181 0006 000a 0004 1098 1ff1 20 11010000 LEAX  -$1,X              30 1f 26 d3 35     3488 
1183 0006 0009 0004 1098 1ff1 20 11010000 BNE   $1158              26 d3 35 96 fc     3493 
1158 0006 0009 0004 1098 1ff1 20 11010000 LSR   <$00               04 00 06 01 06     3496 
115a 0006 0009 0004 1098 1ff1 20 11010101 ROR   <$01               06 01 06 02 06     3502 
115c 0006 0009 0004 1098 1ff1 20 11011001 ROR   <$02               06 02 06 03 dc     3508 
115e 0006 0009 0004 1098 1ff1 20 11011000 ROR   <$03               06 03 dc 00 10     3514 
1160 0006 0009 0004 1098 1ff1 20 11010100 LDD   <$00               dc 00 10 a3 c4     3520 
1162 00ff 0009 0004 1098 1ff1 20 11010000 CMPD  ,U                 10 a3 c4 25 09     3525 
1165 00ff 0009 0004 1098 1ff1 20 11010000 BCS   $1170              25 09 22 18 dc     3532 
1167 00ff 0009 0004 1098 1ff1 20 11010000 BHI   $1181              22 18 dc 02 10     3535 
1181 00ff 0009 0004 1098 1ff1 20 11010000 LEAX  -$1,X              30 1f 26 d3 35     3538 
1183 00ff 0008 0004 1098 1ff1 20 11010000 BNE   $1158              26 d3 35 96 fc     3543 
1158 00ff 0008 0004 1098 1ff1 20 11010000 LSR   <$00               04 00 06 01 06     3546 
115a 00ff 0008 0004 1098 1ff1 20 11010100 ROR   <$01               06 01 06 02 06     3552 
115c 00ff 0008 0004 1098 1ff1 20 11010001 ROR   <$02               06 02 06 03 dc     3558 
115e 00ff 0008 0004 1098 1ff1 20 11011001 ROR   <$03               06 03 dc 00 10     3564 
1160 00ff 0008 0004 1098 1ff1 20 11011000 LDD   <$00               dc 00 10 a3 c4     3570 
1162 007f 0008 0004 1098 1ff1 20 11010000 CMPD  ,U                 10 a3 c4 25 09     3575 
1165 007f 0008 0004 1098 1ff1 20 11010000 BCS   $1170              25 09 22 18 dc     3582 
1167 007f 0008 0004 1098 1ff1 20 11010000 BHI   $1181              22 18 dc 02 10     3585 
1181 007f 0008 0004 1098 1ff1 20 11010000 LEAX  -$1,X              30 1f 26 d3 35     3588 
1183 007f 0007 0004 1098 1ff1 20 11010000 BNE   $1158              26 d3 35 96 fc     3593 
1158 007f 0007 0004 1098 1ff1 20 11010000 LSR   <$00               04 00 06 01 06     3596 
115a 007f 0007 0004 1098 1ff1 20 11010100 ROR   <$01               06 01 06 02 06     3602 
115c 007f 0007 0004 1098 1ff1 20 11010001 ROR   <$02               06 02 06 03 dc     3608 
115e 007f 0007 0004 1098 1ff1 20 11011000 ROR   <$03               06 03 dc 00 10     3614 
1160 007f 0007 0004 1098 1ff1 20 11010000 LDD   <$00               dc 00 10 a3 c4     3620 
1162 003f 0007 0004 1098 1ff1 20 11010000 CMPD  ,U                 10 a3 c4 25 09     3625 
1165 003f 0007 0004 1098 1ff1 20 11010000 BCS   $1170              25 09 22 18 dc     3632 
1167 003f 0007 0004 1098 1ff1 20 11010000 BHI   $1181              22 18 dc 02 10     3635 
1181 003f 0007 0004 1098 1ff1 20 11010000 LEAX  -$1,X              30 1f 26 d3 35     3638 
1183 003f 0006 0004 1098 1ff1 20 11010000 BNE   $1158              26 d3 35 96 fc     3643 
1158 003f 0006 0004 1098 1ff1 20 11010000 LSR   <$00               04 00 06 01 06     3646 
115a 003f 0006 0004 1098 1ff1 20 11010100 ROR   <$01               06 01 06 02 06     3652 
115c 003f 0006 0004 1098 1ff1 20 11010001 ROR   <$02               06 02 06 03 dc     3658 
115e 003f 0006 0004 1098 1ff1 20 11011000 ROR   <$03               06 03 dc 00 10     3664 
1160 003f 0006 0004 1098 1ff1 20 11010000 LDD   <$00               dc 00 10 a3 c4     3670 
1162 001f 0006 0004 1098 1ff1 20 11010000 CMPD  ,U                 10 a3 c4 25 09     3675 
1165 001f 0006 0004 1098 1ff1 20 11010000 BCS   $1170              25 09 22 18 dc     3682 
1167 001f 0006 0004 1098 1ff1 20 11010000 BHI   $1181              22 18 dc 02 10     3685 
1181 001f 0006 0004 1098 1ff1 20 11010000 LEAX  -$1,X              30 1f 26 d3 35     3688 
1183 001f 0005 0004 1098 1ff1 20 11010000 BNE   $1158              26 d3 35 96 fc     3693 
1158 001f 0005 0004 1098 1ff1 20 11010000 LSR   <$00               04 00 06 01 06     3696 
115a 001f 0005 0004 1098 1ff1 20 11010100 ROR   <$01               06 01 06 02 06     3702 
115c 001f 0005 0004 1098 1ff1 20 11010001 ROR   <$02               06 02 06 03 dc     3708 
115e 001f 0005 0004 1098 1ff1 20 11011000 ROR   <$03               06 03 dc 00 10     3714 
1160 001f 0005 0004 1098 1ff1 20 11010000 LDD   <$00               dc 00 10 a3 c4     3720 
1162 000f 0005 0004 1098 1ff1 20 11010000 CMPD  ,U                 10 a3 c4 25 09     3725 
1165 000f 0005 0004 1098 1ff1 20 11010000 BCS   $1170              25 09 22 18 dc     3732 
1167 000f 0005 0004 1098 1ff1 20 11010000 BHI   $1181              22 18 dc 02 10     3735 
1181 000f 0005 0004 1098 1ff1 20 11010000 LEAX  -$1,X              30 1f 26 d3 35     3738 
1183 000f 0004 0004 1098 1ff1 20 11010000 BNE   $1158              26 d3 35 96 fc     3743 
1158 000f 0004 0004 1098 1ff1 20 11010000 LSR   <$00               04 00 06 01 06     3746 
115a 000f 0004 0004 1098 1ff1 20 11010100 ROR   <$01               06 01 06 02 06     3752 
115c 000f 0004 0004 1098 1ff1 20 11010001 ROR   <$02               06 02 06 03 dc     3758 
115e 000f 0004 0004 1098 1ff1 20 11011001 ROR   <$03               06 03 dc 00 10     3764 
1160 000f 0004 0004 1098 1ff1 20 11011000 LDD   <$00               dc 00 10 a3 c4     3770 
1162 0007 0004 0004 1098 1ff1 20 11010000 CMPD  ,U                 10 a3 c4 25 09     3775 
1165 0007 0004 0004 1098 1ff1 20 11010000 BCS   $1170              25 09 22 18 dc     3782 
1167 0007 0004 0004 1098 1ff1 20 11010000 BHI   $1181              22 18 dc 02 10     3785 
1181 0007 0004 0004 1098 1ff1 20 11010000 LEAX  -$1,X              30 1f 26 d3 35     3788 
1183 0007 0003 0004 1098 1ff1 20 11010000 BNE   $1158              26 d3 35 96 fc     3793 
1158 0007 0003 0004 1098 1ff1 20 11010000 LSR   <$00               04 00 06 01 06     3796 
115a 0007 0003 0004 1098 1ff1 20 11010100 ROR   <$01               06 01 06 02 06     3802 
115c 0007 0003 0004 1098 1ff1 20 11010001 ROR   <$02               06 02 06 03 dc     3808 
115e 0007 0003 0004 1098 1ff1 20 11011001 ROR   <$03               06 03 dc 00 10     3814 
1160 0007 0003 0004 1098 1ff1 20 11011000 LDD   <$00               dc 00 10 a3 c4     3820 
1162 0003 0003 0004 1098 1ff1 20 11010000 CMPD  ,U                 10 a3 c4 25 09     3825 
1165 0003 0003 0004 1098 1ff1 20 11011001 BCS   $1170              25 09 22 18 dc     3832 
1170 0003 0003 0004 1098 1ff1 20 11011001 LDD   $2,U               ec 42 93 02 ed     3835 
1172 3d96 0003 0004 1098 1ff1 20 11010001 SUBD  <$02               93 02 ed 42 ec     3841 
1174 3dd2 0003 0004 1098 1ff1 20 11010001 STD   $2,U               ed 42 ec c4 24     3847 
1176 3dd2 0003 0004 1098 1ff1 20 11010001 LDD   ,U                 ec c4 24 03 83     3853 
1178 0006 0003 0004 1098 1ff1 20 11010001 BCC   $117D              24 03 83 00 01     3858 
117a 0006 0003 0004 1098 1ff1 20 11010001 SUBD  #$0001             83 00 01 93 00     3861 
117d 0005 0003 0004 1098 1ff1 20 11010000 SUBD  <$00               93 00 ed c4 30     3865 
117f 0002 0003 0004 1098 1ff1 20 11010000 STD   ,U                 ed c4 30 1f 26     3871 
1181 0002 0003 0004 1098 1ff1 20 11010000 LEAX  -$1,X              30 1f 26 d3 35     3876 
1183 0002 0002 0004 1098 1ff1 20 11010000 BNE   $1158              26 d3 35 96 fc     3881 
1158 0002 0002 0004 1098 1ff1 20 11010000 LSR   <$00               04 00 06 01 06     3884 
115a 0002 0002 0004 1098 1ff1 20 11010100 ROR   <$01               06 01 06 02 06     3890 
115c 0002 0002 0004 1098 1ff1 20 11010001 ROR   <$02               06 02 06 03 dc     3896 
115e 0002 0002 0004 1098 1ff1 20 11011001 ROR   <$03               06 03 dc 00 10     3902 
1160 0002 0002 0004 1098 1ff1 20 11011000 LDD   <$00               dc 00 10 a3 c4     3908 
1162 0001 0002 0004 1098 1ff1 20 11010000 CMPD  ,U                 10 a3 c4 25 09     3913 
1165 0001 0002 0004 1098 1ff1 20 11011001 BCS   $1170              25 09 22 18 dc     3920 
1170 0001 0002 0004 1098 1ff1 20 11011001 LDD   $2,U               ec 42 93 02 ed     3923 
1172 3dd2 0002 0004 1098 1ff1 20 11010001 SUBD  <$02               93 02 ed 42 ec     3929 
1174 3df0 0002 0004 1098 1ff1 20 11010001 STD   $2,U               ed 42 ec c4 24     3935 
1176 3df0 0002 0004 1098 1ff1 20 11010001 LDD   ,U                 ec c4 24 03 83     3941 
1178 0002 0002 0004 1098 1ff1 20 11010001 BCC   $117D              24 03 83 00 01     3946 
117a 0002 0002 0004 1098 1ff1 20 11010001 SUBD  #$0001             83 00 01 93 00     3949 
117d 0001 0002 0004 1098 1ff1 20 11010000 SUBD  <$00               93 00 ed c4 30     3953 
117f 0000 0002 0004 1098 1ff1 20 11010100 STD   ,U                 ed c4 30 1f 26     3959 
1181 0000 0002 0004 1098 1ff1 20 11010100 LEAX  -$1,X              30 1f 26 d3 35     3964 
1183 0000 0001 0004 1098 1ff1 20 11010000 BNE   $1158              26 d3 35 96 fc     3969 
1158 0000 0001 0004 1098 1ff1 20 11010000 LSR   <$00               04 00 06 01 06     3972 
115a 0000 0001 0004 1098 1ff1 20 11010100 ROR   <$01               06 01 06 02 06     3978 
115c 0000 0001 0004 1098 1ff1 20 11010101 ROR   <$02               06 02 06 03 dc     3984 
115e 0000 0001 0004 1098 1ff1 20 11011001 ROR   <$03               06 03 dc 00 10     3990 
1160 0000 0001 0004 1098 1ff1 20 11011000 LDD   <$00               dc 00 10 a3 c4     3996 
1162 0000 0001 0004 1098 1ff1 20 11010100 CMPD  ,U                 10 a3 c4 25 09     4001 
1165 0000 0001 0004 1098 1ff1 20 11010100 BCS   $1170              25 09 22 18 dc     4008 
1167 0000 0001 0004 1098 1ff1 20 11010100 BHI   $1181              22 18 dc 02 10     4011 
1169 0000 0001 0004 1098 1ff1 20 11010100 LDD   <$02               dc 02 10 a3 42     4014 
116b fff1 0001 0004 1098 1ff1 20 11011000 CMPD  $2,U               10 a3 42 22 11     4019 
116e fff1 0001 0004 1098 1ff1 20 11011000 BHI   $1181              22 11 ec 42 93     4027 
1181 fff1 0001 0004 1098 1ff1 20 11011000 LEAX  -$1,X              30 1f 26 d3 35     4030 
1183 fff1 0000 0004 1098 1ff1 20 11011100 BNE   $1158              26 d3 35 96 fc     4035 
1185 fff1 0000 0004 1098 1ff1 20 11011100 PULS  A,B,X,PC           35 96 fc 10 a0     4038 
1125 0012 fff1 0004 1098 1ff7 20 11011100 LDU   #$109C             ce 10 9c 8d 02     4049 
1128 0012 fff1 0004 109c 1ff7 20 11010000 BSR   $112C              8d 02 35 d0 34     4052 
112c 0012 fff1 0004 109c 1ff5 20 11010000 PSHS  X,B,A              34 16 9f 02 8e     4059 
112e 0012 fff1 0004 109c 1ff1 20 11010000 STX   <$02               9f 02 8e 00 00     4068 
1130 0012 fff1 0004 109c 1ff1 20 11011000 LDX   #$0000             8e 00 00 9f 00     4073 
1133 0012 0000 0004 109c 1ff1 20 11010100 STX   <$00               9f 00 ec c4 10     4076 
1135 0012 0000 0004 109c 1ff1 20 11010100 LDD   ,U                 ec c4 10 93 00     4081 
1137 0000 0000 0004 109c 1ff1 20 11010100 CMPD  <$00               10 93 00 22 0b     4086 
113a 0000 0000 0004 109c 1ff1 20 11010100 BHI   $1147              22 0b 25 15 ec     4093 
113c 0000 0000 0004 109c 1ff1 20 11010100 BCS   $1153              25 15 ec 42 10     4096 
113e 0000 0000 0004 109c 1ff1 20 11010100 LDD   $2,U               ec 42 10 93 02     4099 
1140 4967 0000 0004 109c 1ff1 20 11010000 CMPD  <$02               10 93 02 22 02     4105 
1143 4967 0000 0004 109c 1ff1 20 11010001 BHI   $1147              22 02 25 0c 08     4112 
1145 4967 0000 0004 109c 1ff1 20 11010001 BCS   $1153              25 0c 08 03 09     4115 
1153 4967 0000 0004 109c 1ff1 20 11010001 CMPX  #$0000             8c 00 00 27 2d     4118 
1156 4967 0000 0004 109c 1ff1 20 11010100 BEQ   $1185              27 2d 04 00 06     4122 
1185 4967 0000 0004 109c 1ff1 20 11010100 PULS  A,B,X,PC           35 96 fc 10 a0     4125 
112a 0012 fff1 0004 109c 1ff7 20 11010100 PULS  X,U,PC             35 d0 34 16 9f     4136 
118e 0012 1098 0004 1099 1ffd 20 11010100 LDD   $109E              fc 10 9e fd 10     4147 
1191 4967 1098 0004 1099 1ffd 20 11010000 STD   $1098              fd 10 98 39 cd     4153 
1194 4967 1098 0004 1099 1ffd 20 11010000 RTS                      39 cd cd cd cd     4159 
1035 4967 1098 0004 1099 1fff 20 11010000 LDX   #$1086             8e 10 86 a7 84     4164 
1038 4967 1086 0004 1099 1fff 20 11010000 STA   ,X                 a7 84 e8 01 24     4167 
103a 4967 1086 0004 1099 1fff 20 11010000 EORB  $1,X               e8 01 24 01 19     4171 
103c 490d 1086 0004 1099 1fff 20 11010000 BCC   $103F              24 01 19 25 01     4176 
103f 490d 1086 0004 1099 1fff 20 11010000 BCS   $1042              25 01 4c 27 01     4179 
1041 490d 1086 0004 1099 1fff 20 11010000 INCA                     4c 27 01 4a 2c     4182 
1042 4a0d 1086 0004 1099 1fff 20 11010000 BEQ   $1045              27 01 4a 2c 03     4184 
1044 4a0d 1086 0004 1099 1fff 20 11010000 DECA                     4a 2c 03 bd 10     4187 
1045 490d 1086 0004 1099 1fff 20 11010000 BGE   $104A              2c 03 bd 10 af     4189 
104a 490d 1086 0004 1099 1fff 20 11010000 BGT   $104E              2e 02 ab 84 22     4192 
104e 490d 1086 0004 1099 1fff 20 11010000 BHI   $1052              22 02 a9 84 24     4195 
1052 490d 1086 0004 1099 1fff 20 11010000 BCC   $1055              24 01 3d 2f 02     4198 
1055 490d 1086 0004 1099 1fff 20 11010000 BLE   $1059              2f 02 a0 84 25     4201 
1057 490d 1086 0004 1099 1fff 20 11010000 SUBA  ,X                 a0 84 25 02 a2     4204 
1059 000d 1086 0004 1099 1fff 20 11010100 BCS   $105D              25 02 a2 84 23     4208 
105b 000d 1086 0004 1099 1fff 20 11010100 SBCA  ,X                 a2 84 23 01 48     4211 
105d b70d 1086 0004 1099 1fff 20 11011001 BLS   $1060              23 01 48 2d 01     4215 
1060 b70d 1086 0004 1099 1fff 20 11011001 BLT   $1063              2d 01 49 2b 01     4218 
1063 b70d 1086 0004 1099 1fff 20 11011001 BMI   $1066              2b 01 44 26 01     4221 
1066 b70d 1086 0004 1099 1fff 20 11011001 BNE   $1069              26 01 46 2a 02     4224 
1069 b70d 1086 0004 1099 1fff 20 11011001 BPL   $106D              2a 02 84 0f 28     4227 
106b b70d 1086 0004 1099 1fff 20 11011001 ANDA  #$0F               84 0f 28 02 8a     4230 
106d 070d 1086 0004 1099 1fff 20 11010001 BVC   $1071              28 02 8a f0 29     4232 
1071 070d 1086 0004 1099 1fff 20 11010001 BVS   $1075              29 02 88 aa a8     4235 
1073 070d 1086 0004 1099 1fff 20 11010001 EORA  #$AA               88 aa a8 84 31     4238 
1075 ad0d 1086 0004 1099 1fff 20 11011001 EORA  ,X                 a8 84 31 3f 26     4240 
1077 e40d 1086 0004 1099 1fff 20 11011001 LEAY  -$1,Y              31 3f 26 9f bd     4244 
1079 e40d 1086 0003 1099 1fff 20 11011001 BNE   $101A              26 9f bd 11 87     4249 
101a e40d 1086 0003 1099 1fff 20 11011001 LDU   #$1086             ce 10 86 8e 00     4252 
101d e40d 1086 0003 1086 1fff 20 11010001 LDX   #$0012             8e 00 12 bd 10     4255 
1020 e40d 0012 0003 1086 1fff 20 11010001 JSR   $10D4              bd 10 d4 8e 10     4258 
10d4 e40d 0012 0003 1086 1ffd 20 11010001 PSHS  U,X,B,A            34 56 4f e6 c0     4266 
10d6 e40d 0012 0003 1086 1ff7 20 11010001 CLRA                     4f e6 c0 f3 10     4277 
10d7 000d 0012 0003 1086 1ff7 20 11010100 LDB   ,U+                e6 c0 f3 10 9a     4279 
10d9 0049 0012 0003 1087 1ff7 20 11010000 ADDD  $109A              f3 10 9a fd 10     4285 
10dc 3e39 0012 0003 1087 1ff7 20 11010000 STD   $109A              fd 10 9a 24 09     4292 
10df 3e39 0012 0003 1087 1ff7 20 11010000 BCC   $10EA              24 09 fc 10 98     4298 
10ea 3e39 0012 0003 1087 1ff7 20 11010000 LDD   $109A              fc 10 9a f3 10     4301 
10ed 3e39 0012 0003 1087 1ff7 20 11010000 ADDD  $109E              f3 10 9e fd 10     4307 
10f0 87a0 0012 0003 1087 1ff7 20 11011010 STD   $109E              fd 10 9e fc 10     4314 
10f3 87a0 0012 0003 1087 1ff7 20 11011000 LDD   $1098              fc 10 98 24 03     4320 
10f6 4967 0012 0003 1087 1ff7 20 11010000 BCC   $10FB              24 03 c3 00 01     4326 
10fb 4967 0012 0003 1087 1ff7 20 11010000 ADDD  $109C              f3 10 9c fd 10     4329 
10fe 4967 0012 0003 1087 1ff7 20 11010000 STD   $109C              fd 10 9c fc 10     4336 
1101 4967 0012 0003 1087 1ff7 20 11010000 LDD   $10A0              fc 10 a0 c3 00     4342 
1104 0012 0012 0003 1087 1ff7 20 11010000 ADDD  #$0001             c3 00 01 10 83     4348 
1107 0013 0012 0003 1087 1ff7 20 11010000 CMPD  #$15AE             10 83 15 ae 26     4352 
110b 0013 0012 0003 1087 1ff7 20 11011001 BNE   $1112              26 05 8d 0c cc     4357 
1112 0013 0012 0003 1087 1ff7 20 11011001 STD   $10A0              fd 10 a0 30 1f     4360 
1115 0013 0012 0003 1087 1ff7 20 11010001 LEAX  -$1,X              30 1f 26 bd 35     4366 
1117 0013 0011 0003 1087 1ff7 20 11010001 BNE   $10D6              26 bd 35 d6 34     4371 
10d6 0013 0011 0003 1087 1ff7 20 11010001 CLRA                     4f e6 c0 f3 10     4374 
10d7 0013 0011 0003 1087 1ff7 20 11010100 LDB   ,U+                e6 c0 f3 10 9a     4376 
10d9 006a 0011 0003 1088 1ff7 20 11010000 ADDD  $109A              f3 10 9a fd 10     4382 
10dc 3ea3 0011 0003 1088 1ff7 20 11010000 STD   $109A              fd 10 9a 24 09     4389 
10df 3ea3 0011 0003 1088 1ff7 20 11010000 BCC   $10EA              24 09 fc 10 98     4395 
10ea 3ea3 0011 0003 1088 1ff7 20 11010000 LDD   $109A              fc 10 9a f3 10     4398 
10ed 3ea3 0011 0003 1088 1ff7 20 11010000 ADDD  $109E              f3 10 9e fd 10     4404 
10f0 c643 0011 0003 1088 1ff7 20 11011000 STD   $109E              fd 10 9e fc 10     4411 
10f3 c643 0011 0003 1088 1ff7 20 11011000 LDD   $1098              fc 10 98 24 03     4417 
10f6 4967 0011 0003 1088 1ff7 20 11010000 BCC   $10FB              24 03 c3 00 01     4423 
10fb 4967 0011 0003 1088 1ff7 20 11010000 ADDD  $109C              f3 10 9c fd 10     4426 
10fe 92ce 0011 0003 1088 1ff7 20 11011010 STD   $109C              fd 10 9c fc 10     4433 
1101 92ce 0011 0003 1088 1ff7 20 11011000 LDD   $10A0              fc 10 a0 c3 00     4439 
1104 0013 0011 0003 1088 1ff7 20 11010000 ADDD  #$0001             c3 00 01 10 83     4445 
1107 0014 0011 0003 1088 1ff7 20 11010000 CMPD  #$15AE             10 83 15 ae 26     4449 
110b 0014 0011 0003 1088 1ff7 20 11011001 BNE   $1112              26 05 8d 0c cc     4454 
1112 0014 0011 0003 1088 1ff7 20 11011001 STD   $10A0              fd 10 a0 30 1f     4457 
1115 0014 0011 0003 1088 1ff7 20 11010001 LEAX  -$1,X              30 1f 26 bd 35     4463 
1117 0014 0010 0003 1088 1ff7 20 11010001 BNE   $10D6              26 bd 35 d6 34     4468 
10d6 0014 0010 0003 1088 1ff7 20 11010001 CLRA                     4f e6 c0 f3 10     4471 
10d7 0014 0010 0003 1088 1ff7 20 11010100 LDB   ,U+                e6 c0 f3 10 9a     4473 
10d9 006a 0010 0003 1089 1ff7 20 11010000 ADDD  $109A              f3 10 9a fd 10     4479 
10dc 3f0d 0010 0003 1089 1ff7 20 11010000 STD   $109A              fd 10 9a 24 09     4486 
10df 3f0d 0010 0003 1089 1ff7 20 11010000 BCC   $10EA              24 09 fc 10 98     4492 
10ea 3f0d 0010 0003 1089 1ff7 20 11010000 LDD   $109A              fc 10 9a f3 10     4495 
10ed 3f0d 0010 0003 1089 1ff7 20 11010000 ADDD  $109E              f3 10 9e fd 10     4501 
10f0 0550 0010 0003 1089 1ff7 20 11010001 STD   $109E              fd 10 9e fc 10     4508 
10f3 0550 0010 0003 1089 1ff7 20 11010001 LDD   $1098              fc 10 98 24 03     4514 
10f6 4967 0010 0003 1089 1ff7 20 11010001 BCC   $10FB              24 03 c3 00 01     4520 
10f8 4967 0010 0003 1089 1ff7 20 11010001 ADDD  #$0001             c3 00 01 f3 10     4523 
10fb 4968 0010 0003 1089 1ff7 20 11010000 ADDD  $109C              f3 10 9c fd 10     4527 
10fe dc36 0010 0003 1089 1ff7 20 11011000 STD   $109C              fd 10 9c fc 10     4534 
1101 dc36 0010 0003 1089 1ff7 20 11011000 LDD   $10A0              fc 10 a0 c3 00     4540 
1104 0014 0010 0003 1089 1ff7 20 11010000 ADDD  #$0001             c3 00 01 10 83     4546 
1107 0015 0010 0003 1089 1ff7 20 11010000 CMPD  #$15AE             10 83 15 ae 26     4550 
110b 0015 0010 0003 1089 1ff7 20 11011001 BNE   $1112              26 05 8d 0c cc     4555 
1112 0015 0010 0003 1089 1ff7 20 11011001 STD   $10A0              fd 10 a0 30 1f     4558 
1115 0015 0010 0003 1089 1ff7 20 11010001 LEAX  -$1,X              30 1f 26 bd 35     4564 
1117 0015 000f 0003 1089 1ff7 20 11010001 BNE   $10D6              26 bd 35 d6 34     4569 
10d6 0015 000f 0003 1089 1ff7 20 11010001 CLRA                     4f e6 c0 f3 10     4572 
10d7 0015 000f 0003 1089 1ff7 20 11010100 LDB   ,U+                e6 c0 f3 10 9a     4574 
10d9 006a 000f 0003 108a 1ff7 20 11010000 ADDD  $109A              f3 10 9a fd 10     4580 
10dc 3f77 000f 0003 108a 1ff7 20 11010000 STD   $109A              fd 10 9a 24 09     4587 
10df 3f77 000f 0003 108a 1ff7 20 11010000 BCC   $10EA              24 09 fc 10 98     4593 
10ea 3f77 000f 0003 108a 1ff7 20 11010000 LDD   $109A              fc 10 9a f3 10     4596 
10ed 3f77 000f 0003 108a 1ff7 20 11010000 ADDD  $109E              f3 10 9e fd 10     4602 
10f0 44c7 000f 0003 108a 1ff7 20 11010000 STD   $109E              fd 10 9e fc 10     4609 
10f3 44c7 000f 0003 108a 1ff7 20 11010000 LDD   $1098              fc 10 98 24 03     4615 
10f6 4967 000f 0003 108a 1ff7 20 11010000 BCC   $10FB              24 03 c3 00 01     4621 
10fb 4967 000f 0003 108a 1ff7 20 11010000 ADDD  $109C              f3 10 9c fd 10     4624 
10fe 259d 000f 0003 108a 1ff7 20 11010001 STD   $109C              fd 10 9c fc 10     4631 
1101 259d 000f 0003 108a 1ff7 20 11010001 LDD   $10A0              fc 10 a0 c3 00     4637 
1104 0015 000f 0003 108a 1ff7 20 11010001 ADDD  #$0001             c3 00 01 10 83     4643 
1107 0016 000f 0003 108a 1ff7 20 11010000 CMPD  #$15AE             10 83 15 ae 26     4647 
110b 0016 000f 0003 108a 1ff7 20 11011001 BNE   $1112              26 05 8d 0c cc     4652 
1112 0016 000f 0003 108a 1ff7 20 11011001 STD   $10A0              fd 10 a0 30 1f     4655 
1115 0016 000f 0003 108a 1ff7 20 11010001 LEAX  -$1,X              30 1f 26 bd 35     4661 
1117 0016 000e 0003 108a 1ff7 20 11010001 BNE   $10D6              26 bd 35 d6 34     4666 
10d6 0016 000e 0003 108a 1ff7 20 11010001 CLRA                     4f e6 c0 f3 10     4669 
10d7 0016 000e 0003 108a 1ff7 20 11010100 LDB   ,U+                e6 c0 f3 10 9a     4671 
10d9 006a 000e 0003 108b 1ff7 20 11010000 ADDD  $109A              f3 10 9a fd 10     4677 
10dc 3fe1 000e 0003 108b 1ff7 20 11010000 STD   $109A              fd 10 9a 24 09     4684 
10df 3fe1 000e 0003 108b 1ff7 20 11010000 BCC   $10EA              24 09 fc 10 98     4690 
10ea 3fe1 000e 0003 108b 1ff7 20 11010000 LDD   $109A              fc 10 9a f3 10     4693 
10ed 3fe1 000e 0003 108b 1ff7 20 11010000 ADDD  $109E              f3 10 9e fd 10     4699 
10f0 84a8 000e 0003 108b 1ff7 20 11011010 STD   $109E              fd 10 9e fc 10     4706 
10f3 84a8 000e 0003 108b 1ff7 20 11011000 LDD   $1098              fc 10 98 24 03     4712 
10f6 4967 000e 0003 108b 1ff7 20 11010000 BCC   $10FB              24 03 c3 00 01     4718 
10fb 4967 000e 0003 108b 1ff7 20 11010000 ADDD  $109C              f3 10 9c fd 10     4721 
10fe 6f04 000e 0003 108b 1ff7 20 11010000 STD   $109C              fd 10 9c fc 10     4728 
1101 6f04 000e 0003 108b 1ff7 20 11010000 LDD   $10A0              fc 10 a0 c3 00     4734 
1104 0016 000e 0003 108b 1ff7 20 11010000 ADDD  #$0001             c3 00 01 10 83     4740 
1107 0017 000e 0003 108b 1ff7 20 11010000 CMPD  #$15AE             10 83 15 ae 26     4744 
110b 0017 000e 0003 108b 1ff7 20 11011001 BNE   $1112              26 05 8d 0c cc     4749 
1112 0017 000e 0003 108b 1ff7 20 11011001 STD   $10A0              fd 10 a0 30 1f     4752 
1115 0017 000e 0003 108b 1ff7 20 11010001 LEAX  -$1,X              30 1f 26 bd 35     4758 
1117 0017 000d 0003 108b 1ff7 20 11010001 BNE   $10D6              26 bd 35 d6 34     4763 
10d6 0017 000d 0003 108b 1ff7 20 11010001 CLRA                     4f e6 c0 f3 10     4766 
10d7 0017 000d 0003 108b 1ff7 20 11010100 LDB   ,U+                e6 c0 f3 10 9a     4768 
10d9 006a 000d 0003 108c 1ff7 20 11010000 ADDD  $109A              f3 10 9a fd 10     4774 
10dc 404b 000d 0003 108c 1ff7 20 11010000 STD   $109A              fd 10 9a 24 09     4781 
10df 404b 000d 0003 108c 1ff7 20 11010000 BCC   $10EA              24 09 fc 10 98     4787 
10ea 404b 000d 0003 108c 1ff7 20 11010000 LDD   $109A              fc 10 9a f3 10     4790 
10ed 404b 000d 0003 108c 1ff7 20 11010000 ADDD  $109E              f3 10 9e fd 10     4796 
10f0 c4f3 000d 0003 108c 1ff7 20 11011000 STD   $109E              fd 10 9e fc 10     4803 
10f3 c4f3 000d 0003 108c 1ff7 20 11011000 LDD   $1098              fc 10 98 24 03     4809 
10f6 4967 000d 0003 108c 1ff7 20 11010000 BCC   $10FB              24 03 c3 00 01     4815 
10fb 4967 000d 0003 108c 1ff7 20 11010000 ADDD  $109C              f3 10 9c fd 10     4818 
10fe b86b 000d 0003 108c 1ff7 20 11011010 STD   $109C              fd 10 9c fc 10     4825 
1101 b86b 000d 0003 108c 1ff7 20 11011000 LDD   $10A0              fc 10 a0 c3 00     4831 
1104 0017 000d 0003 108c 1ff7 20 11010000 ADDD  #$0001             c3 00 01 10 83     4837 
1107 0018 000d 0003 108c 1ff7 20 11010000 CMPD  #$15AE             10 83 15 ae 26     4841 
110b 0018 000d 0003 108c 1ff7 20 11011001 BNE   $1112              26 05 8d 0c cc     4846 
1112 0018 000d 0003 108c 1ff7 20 11011001 STD   $10A0              fd 10 a0 30 1f     4849 
1115 0018 000d 0003 108c 1ff7 20 11010001 LEAX  -$1,X              30 1f 26 bd 35     4855 
1117 0018 000c 0003 108c 1ff7 20 11010001 BNE   $10D6              26 bd 35 d6 34     4860 
10d6 0018 000c 0003 108c 1ff7 20 11010001 CLRA                     4f e6 c0 f3 10     4863 
10d7 0018 000c 0003 108c 1ff7 20 11010100 LDB   ,U+                e6 c0 f3 10 9a     4865 
10d9 006a 000c 0003 108d 1ff7 20 11010000 ADDD  $109A              f3 10 9a fd 10     4871 
10dc 40b5 000c 0003 108d 1ff7 20 11010000 STD   $109A              fd 10 9a 24 09     4878 
10df 40b5 000c 0003 108d 1ff7 20 11010000 BCC   $10EA              24 09 fc 10 98     4884 
10ea 40b5 000c 0003 108d 1ff7 20 11010000 LDD   $109A              fc 10 9a f3 10     4887 
10ed 40b5 000c 0003 108d 1ff7 20 11010000 ADDD  $109E              f3 10 9e fd 10     4893 
10f0 05a8 000c 0003 108d 1ff7 20 11010001 STD   $109E              fd 10 9e fc 10     4900 
10f3 05a8 000c 0003 108d 1ff7 20 11010001 LDD   $1098              fc 10 98 24 03     4906 
10f6 4967 000c 0003 108d 1ff7 20 11010001 BCC   $10FB              24 03 c3 00 01     4912 
10f8 4967 000c 0003 108d 1ff7 20 11010001 ADDD  #$0001             c3 00 01 f3 10     4915 
10fb 4968 000c 0003 108d 1ff7 20 11010000 ADDD  $109C              f3 10 9c fd 10     4919 
10fe 01d3 000c 0003 108d 1ff7 20 11010001 STD   $109C              fd 10 9c fc 10     4926 
1101 01d3 000c 0003 108d 1ff7 20 11010001 LDD   $10A0              fc 10 a0 c3 00     4932 
1104 0018 000c 0003 108d 1ff7 20 11010001 ADDD  #$0001             c3 00 01 10 83     4938 
1107 0019 000c 0003 108d 1ff7 20 11010000 CMPD  #$15AE             10 83 15 ae 26     4942 
110b 0019 000c 0003 108d 1ff7 20 11011001 BNE   $1112              26 05 8d 0c cc     4947 
1112 0019 000c 0003 108d 1ff7 20 11011001 STD   $10A0              fd 10 a0 30 1f     4950 
1115 0019 000c 0003 108d 1ff7 20 11010001 LEAX  -$1,X              30 1f 26 bd 35     4956 
1117 0019 000b 0003 108d 1ff7 20 11010001 BNE   $10D6              26 bd 35 d6 34     4961 
10d6 0019 000b 0003 108d 1ff7 20 11010001 CLRA                     4f e6 c0 f3 10     4964 
10d7 0019 000b 0003 108d 1ff7 20 11010100 LDB   ,U+                e6 c0 f3 10 9a     4966 
10d9 006a 000b 0003 108e 1ff7 20 11010000 ADDD  $109A              f3 10 9a fd 10     4972 
10dc 411f 000b 0003 108e 1ff7 20 11010000 STD   $109A              fd 10 9a 24 09     4979 
10df 411f 000b 0003 108e 1ff7 20 11010000 BCC   $10EA              24 09 fc 10 98     4985 
10ea 411f 000b 0003 108e 1ff7 20 11010000 LDD   $109A              fc 10 9a f3 10     4988 
10ed 411f 000b 0003 108e 1ff7 20 11010000 ADDD  $109E              f3 10 9e fd 10     4994 
10f0 46c7 000b 0003 108e 1ff7 20 11010000 STD   $109E              fd 10 9e fc 10     5001 
10f3 46c7 000b 0003 108e 1ff7 20 11010000 LDD   $1098              fc 10 98 24 03     5007 
10f6 4967 000b 0003 108e 1ff7 20 11010000 BCC   $10FB              24 03 c3 00 01     5013 
10fb 4967 000b 0003 108e 1ff7 20 11010000 ADDD  $109C              f3 10 9c fd 10     5016 
10fe 4b3a 000b 0003 108e 1ff7 20 11010000 STD   $109C              fd 10 9c fc 10     5023 
1101 4b3a 000b 0003 108e 1ff7 20 11010000 LDD   $10A0              fc 10 a0 c3 00     5029 
1104 0019 000b 0003 108e 1ff7 20 11010000 ADDD  #$0001             c3 00 01 10 83     5035 
1107 001a 000b 0003 108e 1ff7 20 11010000 CMPD  #$15AE             10 83 15 ae 26     5039 
110b 001a 000b 0003 108e 1ff7 20 11011001 BNE   $1112              26 05 8d 0c cc     5044 
1112 001a 000b 0003 108e 1ff7 20 11011001 STD   $10A0              fd 10 a0 30 1f     5047 
1115 001a 000b 0003 108e 1ff7 20 11010001 LEAX  -$1,X              30 1f 26 bd 35     5053 
1117 001a 000a 0003 108e 1ff7 20 11010001 BNE   $10D6              26 bd 35 d6 34     5058 
10d6 001a 000a 0003 108e 1ff7 20 11010001 CLRA                     4f e6 c0 f3 10     5061 
10d7 001a 000a 0003 108e 1ff7 20 11010100 LDB   ,U+                e6 c0 f3 10 9a     5063 
10d9 006a 000a 0003 108f 1ff7 20 11010000 ADDD  $109A              f3 10 9a fd 10     5069 
10dc 4189 000a 0003 108f 1ff7 20 11010000 STD   $109A              fd 10 9a 24 09     5076 
10df 4189 000a 0003 108f 1ff7 20 11010000 BCC   $10EA              24 09 fc 10 98     5082 
10ea 4189 000a 0003 108f 1ff7 20 11010000 LDD   $109A              fc 10 9a f3 10     5085 
10ed 4189 000a 0003 108f 1ff7 20 11010000 ADDD  $109E              f3 10 9e fd 10     5091 
10f0 8850 000a 0003 108f 1ff7 20 11011010 STD   $109E              fd 10 9e fc 10     5098 
10f3 8850 000a 0003 108f 1ff7 20 11011000 LDD   $1098              fc 10 98 24 03     5104 
10f6 4967 000a 0003 108f 1ff7 20 11010000 BCC   $10FB              24 03 c3 00 01     5110 
10fb 4967 000a 0003 108f 1ff7 20 11010000 ADDD  $109C              f3 10 9c fd 10     5113 
10fe 94a1 000a 0003 108f 1ff7 20 11011010 STD   $109C              fd 10 9c fc 10     5120 
1101 94a1 000a 0003 108f 1ff7 20 11011000 LDD   $10A0              fc 10 a0 c3 00     5126 
1104 001a 000a 0003 108f 1ff7 20 11010000 ADDD  #$0001             c3 00 01 10 83     5132 
1107 001b 000a 0003 108f 1ff7 20 11010000 CMPD  #$15AE             10 83 15 ae 26     5136 
110b 001b 000a 0003 108f 1ff7 20 11011001 BNE   $1112              26 05 8d 0c cc     5141 
1112 001b 000a 0003 108f 1ff7 20 11011001 STD   $10A0              fd 10 a0 30 1f     5144 
1115 001b 000a 0003 108f 1ff7 20 11010001 LEAX  -$1,X              30 1f 26 bd 35     5150 
1117 001b 0009 0003 108f 1ff7 20 11010001 BNE   $10D6              26 bd 35 d6 34     5155 
10d6 001b 0009 0003 108f 1ff7 20 11010001 CLRA                     4f e6 c0 f3 10     5158 
10d7 001b 0009 0003 108f 1ff7 20 11010100 LDB   ,U+                e6 c0 f3 10 9a     5160 
10d9 006a 0009 0003 1090 1ff7 20 11010000 ADDD  $109A              f3 10 9a fd 10     5166 
10dc 41f3 0009 0003 1090 1ff7 20 11010000 STD   $109A              fd 10 9a 24 09     5173 
10df 41f3 0009 0003 1090 1ff7 20 11010000 BCC   $10EA              24 09 fc 10 98     5179 
10ea 41f3 0009 0003 1090 1ff7 20 11010000 LDD   $109A              fc 10 9a f3 10     5182 
10ed 41f3 0009 0003 1090 1ff7 20 11010000 ADDD  $109E              f3 10 9e fd 10     5188 
10f0 ca43 0009 0003 1090 1ff7 20 11011000 STD   $109E              fd 10 9e fc 10     5195 
10f3 ca43 0009 0003 1090 1ff7 20 11011000 LDD   $1098              fc 10 98 24 03     5201 
10f6 4967 0009 0003 1090 1ff7 20 11010000 BCC   $10FB              24 03 c3 00 01     5207 
10fb 4967 0009 0003 1090 1ff7 20 11010000 ADDD  $109C              f3 10 9c fd 10     5210 
10fe de08 0009 0003 1090 1ff7 20 11011000 STD   $109C              fd 10 9c fc 10     5217 
1101 de08 0009 0003 1090 1ff7 20 11011000 LDD   $10A0              fc 10 a0 c3 00     5223 
1104 001b 0009 0003 1090 1ff7 20 11010000 ADDD  #$0001             c3 00 01 10 83     5229 
1107 001c 0009 0003 1090 1ff7 20 11010000 CMPD  #$15AE             10 83 15 ae 26     5233 
110b 001c 0009 0003 1090 1ff7 20 11011001 BNE   $1112              26 05 8d 0c cc     5238 
1112 001c 0009 0003 1090 1ff7 20 11011001 STD   $10A0              fd 10 a0 30 1f     5241 
1115 001c 0009 0003 1090 1ff7 20 11010001 LEAX  -$1,X              30 1f 26 bd 35     5247 
1117 001c 0008 0003 1090 1ff7 20 11010001 BNE   $10D6              26 bd 35 d6 34     5252 
10d6 001c 0008 0003 1090 1ff7 20 11010001 CLRA                     4f e6 c0 f3 10     5255 
10d7 001c 0008 0003 1090 1ff7 20 11010100 LDB   ,U+                e6 c0 f3 10 9a     5257 
10d9 006a 0008 0003 1091 1ff7 20 11010000 ADDD  $109A              f3 10 9a fd 10     5263 
10dc 425d 0008 0003 1091 1ff7 20 11010000 STD   $109A              fd 10 9a 24 09     5270 
10df 425d 0008 0003 1091 1ff7 20 11010000 BCC   $10EA              24 09 fc 10 98     5276 
10ea 425d 0008 0003 1091 1ff7 20 11010000 LDD   $109A              fc 10 9a f3 10     5279 
10ed 425d 0008 0003 1091 1ff7 20 11010000 ADDD  $109E              f3 10 9e fd 10     5285 
10f0 0ca0 0008 0003 1091 1ff7 20 11010001 STD   $109E              fd 10 9e fc 10     5292 
10f3 0ca0 0008 0003 1091 1ff7 20 11010001 LDD   $1098              fc 10 98 24 03     5298 
10f6 4967 0008 0003 1091 1ff7 20 11010001 BCC   $10FB              24 03 c3 00 01     5304 
10f8 4967 0008 0003 1091 1ff7 20 11010001 ADDD  #$0001             c3 00 01 f3 10     5307 
10fb 4968 0008 0003 1091 1ff7 20 11010000 ADDD  $109C              f3 10 9c fd 10     5311 
10fe 2770 0008 0003 1091 1ff7 20 11010001 STD   $109C              fd 10 9c fc 10     5318 
1101 2770 0008 0003 1091 1ff7 20 11010001 LDD   $10A0              fc 10 a0 c3 00     5324 
1104 001c 0008 0003 1091 1ff7 20 11010001 ADDD  #$0001             c3 00 01 10 83     5330 
1107 001d 0008 0003 1091 1ff7 20 11010000 CMPD  #$15AE             10 83 15 ae 26     5334 
110b 001d 0008 0003 1091 1ff7 20 11011001 BNE   $1112              26 05 8d 0c cc     5339 
1112 001d 0008 0003 1091 1ff7 20 11011001 STD   $10A0              fd 10 a0 30 1f     5342 
1115 001d 0008 0003 1091 1ff7 20 11010001 LEAX  -$1,X              30 1f 26 bd 35     5348 
1117 001d 0007 0003 1091 1ff7 20 11010001 BNE   $10D6              26 bd 35 d6 34     5353 
10d6 001d 0007 0003 1091 1ff7 20 11010001 CLRA                     4f e6 c0 f3 10     5356 
10d7 001d 0007 0003 1091 1ff7 20 11010100 LDB   ,U+                e6 c0 f3 10 9a     5358 
10d9 006a 0007 0003 1092 1ff7 20 11010000 ADDD  $109A              f3 10 9a fd 10     5364 
10dc 42c7 0007 0003 1092 1ff7 20 11010000 STD   $109A              fd 10 9a 24 09     5371 
10df 42c7 0007 0003 1092 1ff7 20 11010000 BCC   $10EA              24 09 fc 10 98     5377 
10ea 42c7 0007 0003 1092 1ff7 20 11010000 LDD   $109A              fc 10 9a f3 10     5380 
10ed 42c7 0007 0003 1092 1ff7 20 11010000 ADDD  $109E              f3 10 9e fd 10     5386 
10f0 4f67 0007 0003 1092 1ff7 20 11010000 STD   $109E              fd 10 9e fc 10     5393 
10f3 4f67 0007 0003 1092 1ff7 20 11010000 LDD   $1098              fc 10 98 24 03     5399 
10f6 4967 0007 0003 1092 1ff7 20 11010000 BCC   $10FB              24 03 c3 00 01     5405 
10fb 4967 0007 0003 1092 1ff7 20 11010000 ADDD  $109C              f3 10 9c fd 10     5408 
10fe 70d7 0007 0003 1092 1ff7 20 11010000 STD   $109C              fd 10 9c fc 10     5415 
1101 70d7 0007 0003 1092 1ff7 20 11010000 LDD   $10A0              fc 10 a0 c3 00     5421 
1104 001d 0007 0003 1092 1ff7 20 11010000 ADDD  #$0001             c3 00 01 10 83     5427 
1107 001e 0007 0003 1092 1ff7 20 11010000 CMPD  #$15AE             10 83 15 ae 26     5431 
110b 001e 0007 0003 1092 1ff7 20 11011001 BNE   $1112              26 05 8d 0c cc     5436 
1112 001e 0007 0003 1092 1ff7 20 11011001 STD   $10A0              fd 10 a0 30 1f     5439 
1115 001e 0007 0003 1092 1ff7 20 11010001 LEAX  -$1,X              30 1f 26 bd 35     5445 
1117 001e 0006 0003 1092 1ff7 20 11010001 BNE   $10D6              26 bd 35 d6 34     5450 
10d6 001e 0006 0003 1092 1ff7 20 11010001 CLRA                     4f e6 c0 f3 10     5453 
10d7 001e 0006 0003 1092 1ff7 20 11010100 LDB   ,U+                e6 c0 f3 10 9a     5455 
10d9 006a 0006 0003 1093 1ff7 20 11010000 ADDD  $109A              f3 10 9a fd 10     5461 
10dc 4331 0006 0003 1093 1ff7 20 11010000 STD   $109A              fd 10 9a 24 09     5468 
10df 4331 0006 0003 1093 1ff7 20 11010000 BCC   $10EA              24 09 fc 10 98     5474 
10ea 4331 0006 0003 1093 1ff7 20 11010000 LDD   $109A              fc 10 9a f3 10     5477 
10ed 4331 0006 0003 1093 1ff7 20 11010000 ADDD  $109E              f3 10 9e fd 10     5483 
10f0 9298 0006 0003 1093 1ff7 20 11011010 STD   $109E              fd 10 9e fc 10     5490 
10f3 9298 0006 0003 1093 1ff7 20 11011000 LDD   $1098              fc 10 98 24 03     5496 
10f6 4967 0006 0003 1093 1ff7 20 11010000 BCC   $10FB              24 03 c3 00 01     5502 
10fb 4967 0006 0003 1093 1ff7 20 11010000 ADDD  $109C              f3 10 9c fd 10     5505 
10fe ba3e 0006 0003 1093 1ff7 20 11011010 STD   $109C              fd 10 9c fc 10     5512 
1101 ba3e 0006 0003 1093 1ff7 20 11011000 LDD   $10A0              fc 10 a0 c3 00     5518 
1104 001e 0006 0003 1093 1ff7 20 11010000 ADDD  #$0001             c3 00 01 10 83     5524 
1107 001f 0006 0003 1093 1ff7 20 11010000 CMPD  #$15AE             10 83 15 ae 26     5528 
110b 001f 0006 0003 1093 1ff7 20 11011001 BNE   $1112              26 05 8d 0c cc     5533 
1112 001f 0006 0003 1093 1ff7 20 11011001 STD   $10A0              fd 10 a0 30 1f     5536 
1115 001f 0006 0003 1093 1ff7 20 11010001 LEAX  -$1,X              30 1f 26 bd 35     5542 
1117 001f 0005 0003 1093 1ff7 20 11010001 BNE   $10D6              26 bd 35 d6 34     5547 
10d6 001f 0005 0003 1093 1ff7 20 11010001 CLRA                     4f e6 c0 f3 10     5550 
10d7 001f 0005 0003 1093 1ff7 20 11010100 LDB   ,U+                e6 c0 f3 10 9a     5552 
10d9 006a 0005 0003 1094 1ff7 20 11010000 ADDD  $109A              f3 10 9a fd 10     5558 
10dc 439b 0005 0003 1094 1ff7 20 11010000 STD   $109A              fd 10 9a 24 09     5565 
10df 439b 0005 0003 1094 1ff7 20 11010000 BCC   $10EA              24 09 fc 10 98     5571 
10ea 439b 0005 0003 1094 1ff7 20 11010000 LDD   $109A              fc 10 9a f3 10     5574 
10ed 439b 0005 0003 1094 1ff7 20 11010000 ADDD  $109E              f3 10 9e fd 10     5580 
10f0 d633 0005 0003 1094 1ff7 20 11011000 STD   $109E              fd 10 9e fc 10     5587 
10f3 d633 0005 0003 1094 1ff7 20 11011000 LDD   $1098              fc 10 98 24 03     5593 
10f6 4967 0005 0003 1094 1ff7 20 11010000 BCC   $10FB              24 03 c3 00 01     5599 
10fb 4967 0005 0003 1094 1ff7 20 11010000 ADDD  $109C              f3 10 9c fd 10     5602 
10fe 03a5 0005 0003 1094 1ff7 20 11010001 STD   $109C              fd 10 9c fc 10     5609 
1101 03a5 0005 0003 1094 1ff7 20 11010001 LDD   $10A0              fc 10 a0 c3 00     5615 
1104 001f 0005 0003 1094 1ff7 20 11010001 ADDD  #$0001             c3 00 01 10 83     5621 
1107 0020 0005 0003 1094 1ff7 20 11010000 CMPD  #$15AE             10 83 15 ae 26     5625 
110b 0020 0005 0003 1094 1ff7 20 11011001 BNE   $1112              26 05 8d 0c cc     5630 
1112 0020 0005 0003 1094 1ff7 20 11011001 STD   $10A0              fd 10 a0 30 1f     5633 
1115 0020 0005 0003 1094 1ff7 20 11010001 LEAX  -$1,X              30 1f 26 bd 35     5639 
1117 0020 0004 0003 1094 1ff7 20 11010001 BNE   $10D6              26 bd 35 d6 34     5644 
10d6 0020 0004 0003 1094 1ff7 20 11010001 CLRA                     4f e6 c0 f3 10     5647 
10d7 0020 0004 0003 1094 1ff7 20 11010100 LDB   ,U+                e6 c0 f3 10 9a     5649 
10d9 006a 0004 0003 1095 1ff7 20 11010000 ADDD  $109A              f3 10 9a fd 10     5655 
10dc 4405 0004 0003 1095 1ff7 20 11010000 STD   $109A              fd 10 9a 24 09     5662 
10df 4405 0004 0003 1095 1ff7 20 11010000 BCC   $10EA              24 09 fc 10 98     5668 
10ea 4405 0004 0003 1095 1ff7 20 11010000 LDD   $109A              fc 10 9a f3 10     5671 
10ed 4405 0004 0003 1095 1ff7 20 11010000 ADDD  $109E              f3 10 9e fd 10     5677 
10f0 1a38 0004 0003 1095 1ff7 20 11010001 STD   $109E              fd 10 9e fc 10     5684 
10f3 1a38 0004 0003 1095 1ff7 20 11010001 LDD   $1098              fc 10 98 24 03     5690 
10f6 4967 0004 0003 1095 1ff7 20 11010001 BCC   $10FB              24 03 c3 00 01     5696 
10f8 4967 0004 0003 1095 1ff7 20 11010001 ADDD  #$0001             c3 00 01 f3 10     5699 
10fb 4968 0004 0003 1095 1ff7 20 11010000 ADDD  $109C              f3 10 9c fd 10     5703 
10fe 4d0d 0004 0003 1095 1ff7 20 11010000 STD   $109C              fd 10 9c fc 10     5710 
1101 4d0d 0004 0003 1095 1ff7 20 11010000 LDD   $10A0              fc 10 a0 c3 00     5716 
1104 0020 0004 0003 1095 1ff7 20 11010000 ADDD  #$0001             c3 00 01 10 83     5722 
1107 0021 0004 0003 1095 1ff7 20 11010000 CMPD  #$15AE             10 83 15 ae 26     5726 
110b 0021 0004 0003 1095 1ff7 20 11011001 BNE   $1112              26 05 8d 0c cc     5731 
1112 0021 0004 0003 1095 1ff7 20 11011001 STD   $10A0              fd 10 a0 30 1f     5734 
1115 0021 0004 0003 1095 1ff7 20 11010001 LEAX  -$1,X              30 1f 26 bd 35     5740 
1117 0021 0003 0003 1095 1ff7 20 11010001 BNE   $10D6              26 bd 35 d6 34     5745 
10d6 0021 0003 0003 1095 1ff7 20 11010001 CLRA                     4f e6 c0 f3 10     5748 
10d7 0021 0003 0003 1095 1ff7 20 11010100 LDB   ,U+                e6 c0 f3 10 9a     5750 
10d9 006a 0003 0003 1096 1ff7 20 11010000 ADDD  $109A              f3 10 9a fd 10     5756 
10dc 446f 0003 0003 1096 1ff7 20 11010000 STD   $109A              fd 10 9a 24 09     5763 
10df 446f 0003 0003 1096 1ff7 20 11010000 BCC   $10EA              24 09 fc 10 98     5769 
10ea 446f 0003 0003 1096 1ff7 20 11010000 LDD   $109A              fc 10 9a f3 10     5772 
10ed 446f 0003 0003 1096 1ff7 20 11010000 ADDD  $109E              f3 10 9e fd 10     5778 
10f0 5ea7 0003 0003 1096 1ff7 20 11010000 STD   $109E              fd 10 9e fc 10     5785 
10f3 5ea7 0003 0003 1096 1ff7 20 11010000 LDD   $1098              fc 10 98 24 03     5791 
10f6 4967 0003 0003 1096 1ff7 20 11010000 BCC   $10FB              24 03 c3 00 01     5797 
10fb 4967 0003 0003 1096 1ff7 20 11010000 ADDD  $109C              f3 10 9c fd 10     5800 
10fe 9674 0003 0003 1096 1ff7 20 11011010 STD   $109C              fd 10 9c fc 10     5807 
1101 9674 0003 0003 1096 1ff7 20 11011000 LDD   $10A0              fc 10 a0 c3 00     5813 
1104 0021 0003 0003 1096 1ff7 20 11010000 ADDD  #$0001             c3 00 01 10 83     5819 
1107 0022 0003 0003 1096 1ff7 20 11010000 CMPD  #$15AE             10 83 15 ae 26     5823 
110b 0022 0003 0003 1096 1ff7 20 11011001 BNE   $1112              26 05 8d 0c cc     5828 
1112 0022 0003 0003 1096 1ff7 20 11011001 STD   $10A0              fd 10 a0 30 1f     5831 
1115 0022 0003 0003 1096 1ff7 20 11010001 LEAX  -$1,X              30 1f 26 bd 35     5837 
1117 0022 0002 0003 1096 1ff7 20 11010001 BNE   $10D6              26 bd 35 d6 34     5842 
10d6 0022 0002 0003 1096 1ff7 20 11010001 CLRA                     4f e6 c0 f3 10     5845 
10d7 0022 0002 0003 1096 1ff7 20 11010100 LDB   ,U+                e6 c0 f3 10 9a     5847 
10d9 006a 0002 0003 1097 1ff7 20 11010000 ADDD  $109A              f3 10 9a fd 10     5853 
10dc 44d9 0002 0003 1097 1ff7 20 11010000 STD   $109A              fd 10 9a 24 09     5860 
10df 44d9 0002 0003 1097 1ff7 20 11010000 BCC   $10EA              24 09 fc 10 98     5866 
10ea 44d9 0002 0003 1097 1ff7 20 11010000 LDD   $109A              fc 10 9a f3 10     5869 
10ed 44d9 0002 0003 1097 1ff7 20 11010000 ADDD  $109E              f3 10 9e fd 10     5875 
10f0 a380 0002 0003 1097 1ff7 20 11011010 STD   $109E              fd 10 9e fc 10     5882 
10f3 a380 0002 0003 1097 1ff7 20 11011000 LDD   $1098              fc 10 98 24 03     5888 
10f6 4967 0002 0003 1097 1ff7 20 11010000 BCC   $10FB              24 03 c3 00 01     5894 
10fb 4967 0002 0003 1097 1ff7 20 11010000 ADDD  $109C              f3 10 9c fd 10     5897 
10fe dfdb 0002 0003 1097 1ff7 20 11011000 STD   $109C              fd 10 9c fc 10     5904 
1101 dfdb 0002 0003 1097 1ff7 20 11011000 LDD   $10A0              fc 10 a0 c3 00     5910 
1104 0022 0002 0003 1097 1ff7 20 11010000 ADDD  #$0001             c3 00 01 10 83     5916 
1107 0023 0002 0003 1097 1ff7 20 11010000 CMPD  #$15AE             10 83 15 ae 26     5920 
110b 0023 0002 0003 1097 1ff7 20 11011001 BNE   $1112              26 05 8d 0c cc     5925 
1112 0023 0002 0003 1097 1ff7 20 11011001 STD   $10A0              fd 10 a0 30 1f     5928 
1115 0023 0002 0003 1097 1ff7 20 11010001 LEAX  -$1,X              30 1f 26 bd 35     5934 
1117 0023 0001 0003 1097 1ff7 20 11010001 BNE   $10D6              26 bd 35 d6 34     5939 
10d6 0023 0001 0003 1097 1ff7 20 11010001 CLRA                     4f e6 c0 f3 10     5942 
10d7 0023 0001 0003 1097 1ff7 20 11010100 LDB   ,U+                e6 c0 f3 10 9a     5944 
10d9 006a 0001 0003 1098 1ff7 20 11010000 ADDD  $109A              f3 10 9a fd 10     5950 
10dc 4543 0001 0003 1098 1ff7 20 11010000 STD   $109A              fd 10 9a 24 09     5957 
10df 4543 0001 0003 1098 1ff7 20 11010000 BCC   $10EA              24 09 fc 10 98     5963 
10ea 4543 0001 0003 1098 1ff7 20 11010000 LDD   $109A              fc 10 9a f3 10     5966 
10ed 4543 0001 0003 1098 1ff7 20 11010000 ADDD  $109E              f3 10 9e fd 10     5972 
10f0 e8c3 0001 0003 1098 1ff7 20 11011000 STD   $109E              fd 10 9e fc 10     5979 
10f3 e8c3 0001 0003 1098 1ff7 20 11011000 LDD   $1098              fc 10 98 24 03     5985 
10f6 4967 0001 0003 1098 1ff7 20 11010000 BCC   $10FB              24 03 c3 00 01     5991 
10fb 4967 0001 0003 1098 1ff7 20 11010000 ADDD  $109C              f3 10 9c fd 10     5994 
10fe 2942 0001 0003 1098 1ff7 20 11010001 STD   $109C              fd 10 9c fc 10     6001 
1101 2942 0001 0003 1098 1ff7 20 11010001 LDD   $10A0              fc 10 a0 c3 00     6007 
1104 0023 0001 0003 1098 1ff7 20 11010001 ADDD  #$0001             c3 00 01 10 83     6013 
1107 0024 0001 0003 1098 1ff7 20 11010000 CMPD  #$15AE             10 83 15 ae 26     6017 
110b 0024 0001 0003 1098 1ff7 20 11011001 BNE   $1112              26 05 8d 0c cc     6022 
1112 0024 0001 0003 1098 1ff7 20 11011001 STD   $10A0              fd 10 a0 30 1f     6025 
1115 0024 0001 0003 1098 1ff7 20 11010001 LEAX  -$1,X              30 1f 26 bd 35     6031 
1117 0024 0000 0003 1098 1ff7 20 11010101 BNE   $10D6              26 bd 35 d6 34     6036 
1119 0024 0000 0003 1098 1ff7 20 11010101 PULS  A,B,X,U,PC         35 d6 34 50 ce     6039 
1023 e40d 0012 0003 1086 1fff 20 11010101 LDX   #$1086             8e 10 86 ce 10     6052 
1026 e40d 1086 0003 1086 1fff 20 11010001 LDU   #$1087             ce 10 87 a6 80     6055 
1029 e40d 1086 0003 1087 1fff 20 11010001 LDA   ,X+                a6 80 a7 c0 8c     6058 
102b 490d 1087 0003 1087 1fff 20 11010001 STA   ,U+                a7 c0 8c 10 98     6064 
102d 490d 1087 0003 1088 1fff 20 11010001 CMPX  #$1098             8c 10 98 26 f7     6070 
1030 490d 1087 0003 1088 1fff 20 11011001 BNE   $1029              26 f7 bd 11 87     6074 
1029 490d 1087 0003 1088 1fff 20 11011001 LDA   ,X+                a6 80 a7 c0 8c     6077 
102b 490d 1088 0003 1088 1fff 20 11010001 STA   ,U+                a7 c0 8c 10 98     6083 
102d 490d 1088 0003 1089 1fff 20 11010001 CMPX  #$1098             8c 10 98 26 f7     6089 
1030 490d 1088 0003 1089 1fff 20 11011001 BNE   $1029              26 f7 bd 11 87     6093 
1029 490d 1088 0003 1089 1fff 20 11011001 LDA   ,X+                a6 80 a7 c0 8c     6096 
102b 490d 1089 0003 1089 1fff 20 11010001 STA   ,U+                a7 c0 8c 10 98     6102 
102d 490d 1089 0003 108a 1fff 20 11010001 CMPX  #$1098             8c 10 98 26 f7     6108 
1030 490d 1089 0003 108a 1fff 20 11011001 BNE   $1029              26 f7 bd 11 87     6112 
1029 490d 1089 0003 108a 1fff 20 11011001 LDA   ,X+                a6 80 a7 c0 8c     6115 
102b 490d 108a 0003 108a 1fff 20 11010001 STA   ,U+                a7 c0 8c 10 98     6121 
102d 490d 108a 0003 108b 1fff 20 11010001 CMPX  #$1098             8c 10 98 26 f7     6127 
1030 490d 108a 0003 108b 1fff 20 11011001 BNE   $1029              26 f7 bd 11 87     6131 
1029 490d 108a 0003 108b 1fff 20 11011001 LDA   ,X+                a6 80 a7 c0 8c     6134 
102b 490d 108b 0003 108b 1fff 20 11010001 STA   ,U+                a7 c0 8c 10 98     6140 
102d 490d 108b 0003 108c 1fff 20 11010001 CMPX  #$1098             8c 10 98 26 f7     6146 
1030 490d 108b 0003 108c 1fff 20 11011001 BNE   $1029              26 f7 bd 11 87     6150 
1029 490d 108b 0003 108c 1fff 20 11011001 LDA   ,X+                a6 80 a7 c0 8c     6153 
102b 490d 108c 0003 108c 1fff 20 11010001 STA   ,U+                a7 c0 8c 10 98     6159 
102d 490d 108c 0003 108d 1fff 20 11010001 CMPX  #$1098             8c 10 98 26 f7     6165 
1030 490d 108c 0003 108d 1fff 20 11011001 BNE   $1029              26 f7 bd 11 87     6169 
1029 490d 108c 0003 108d 1fff 20 11011001 LDA   ,X+                a6 80 a7 c0 8c     6172 
102b 490d 108d 0003 108d 1fff 20 11010001 STA   ,U+                a7 c0 8c 10 98     6178 
102d 490d 108d 0003 108e 1fff 20 11010001 CMPX  #$1098             8c 10 98 26 f7     6184 
1030 490d 108d 0003 108e 1fff 20 11011001 BNE   $1029              26 f7 bd 11 87     6188 
1029 490d 108d 0003 108e 1fff 20 11011001 LDA   ,X+                a6 80 a7 c0 8c     6191 
102b 490d 108e 0003 108e 1fff 20 11010001 STA   ,U+                a7 c0 8c 10 98     6197 
102d 490d 108e 0003 108f 1fff 20 11010001 CMPX  #$1098             8c 10 98 26 f7     6203 
1030 490d 108e 0003 108f 1fff 20 11011001 BNE   $1029              26 f7 bd 11 87     6207 
1029 490d 108e 0003 108f 1fff 20 11011001 LDA   ,X+                a6 80 a7 c0 8c     6210 
102b 490d 108f 0003 108f 1fff 20 11010001 STA   ,U+                a7 c0 8c 10 98     6216 
102d 490d 108f 0003 1090 1fff 20 11010001 CMPX  #$1098             8c 10 98 26 f7     6222 
1030 490d 108f 0003 1090 1fff 20 11011001 BNE   $1029              26 f7 bd 11 87     6226 
1029 490d 108f 0003 1090 1fff 20 11011001 LDA   ,X+                a6 80 a7 c0 8c     6229 
102b 490d 1090 0003 1090 1fff 20 11010001 STA   ,U+                a7 c0 8c 10 98     6235 
102d 490d 1090 0003 1091 1fff 20 11010001 CMPX  #$1098             8c 10 98 26 f7     6241 
1030 490d 1090 0003 1091 1fff 20 11011001 BNE   $1029              26 f7 bd 11 87     6245 
1029 490d 1090 0003 1091 1fff 20 11011001 LDA   ,X+                a6 80 a7 c0 8c     6248 
102b 490d 1091 0003 1091 1fff 20 11010001 STA   ,U+                a7 c0 8c 10 98     6254 
102d 490d 1091 0003 1092 1fff 20 11010001 CMPX  #$1098             8c 10 98 26 f7     6260 
1030 490d 1091 0003 1092 1fff 20 11011001 BNE   $1029              26 f7 bd 11 87     6264 
1029 490d 1091 0003 1092 1fff 20 11011001 LDA   ,X+                a6 80 a7 c0 8c     6267 
102b 490d 1092 0003 1092 1fff 20 11010001 STA   ,U+                a7 c0 8c 10 98     6273 
102d 490d 1092 0003 1093 1fff 20 11010001 CMPX  #$1098             8c 10 98 26 f7     6279 
1030 490d 1092 0003 1093 1fff 20 11011001 BNE   $1029              26 f7 bd 11 87     6283 
1029 490d 1092 0003 1093 1fff 20 11011001 LDA   ,X+                a6 80 a7 c0 8c     6286 
102b 490d 1093 0003 1093 1fff 20 11010001 STA   ,U+                a7 c0 8c 10 98     6292 
102d 490d 1093 0003 1094 1fff 20 11010001 CMPX  #$1098             8c 10 98 26 f7     6298 
1030 490d 1093 0003 1094 1fff 20 11011001 BNE   $1029              26 f7 bd 11 87     6302 
1029 490d 1093 0003 1094 1fff 20 11011001 LDA   ,X+                a6 80 a7 c0 8c     6305 
102b 490d 1094 0003 1094 1fff 20 11010001 STA   ,U+                a7 c0 8c 10 98     6311 
102d 490d 1094 0003 1095 1fff 20 11010001 CMPX  #$1098             8c 10 98 26 f7     6317 
1030 490d 1094 0003 1095 1fff 20 11011001 BNE   $1029              26 f7 bd 11 87     6321 
1029 490d 1094 0003 1095 1fff 20 11011001 LDA   ,X+                a6 80 a7 c0 8c     6324 
102b 490d 1095 0003 1095 1fff 20 11010001 STA   ,U+                a7 c0 8c 10 98     6330 
102d 490d 1095 0003 1096 1fff 20 11010001 CMPX  #$1098             8c 10 98 26 f7     6336 
1030 490d 1095 0003 1096 1fff 20 11011001 BNE   $1029              26 f7 bd 11 87     6340 
1029 490d 1095 0003 1096 1fff 20 11011001 LDA   ,X+                a6 80 a7 c0 8c     6343 
102b 490d 1096 0003 1096 1fff 20 11010001 STA   ,U+                a7 c0 8c 10 98     6349 
102d 490d 1096 0003 1097 1fff 20 11010001 CMPX  #$1098             8c 10 98 26 f7     6355 
1030 490d 1096 0003 1097 1fff 20 11011001 BNE   $1029              26 f7 bd 11 87     6359 
1029 490d 1096 0003 1097 1fff 20 11011001 LDA   ,X+                a6 80 a7 c0 8c     6362 
102b 490d 1097 0003 1097 1fff 20 11010001 STA   ,U+                a7 c0 8c 10 98     6368 
102d 490d 1097 0003 1098 1fff 20 11010001 CMPX  #$1098             8c 10 98 26 f7     6374 
1030 490d 1097 0003 1098 1fff 20 11011001 BNE   $1029              26 f7 bd 11 87     6378 
1029 490d 1097 0003 1098 1fff 20 11011001 LDA   ,X+                a6 80 a7 c0 8c     6381 
102b 490d 1098 0003 1098 1fff 20 11010001 STA   ,U+                a7 c0 8c 10 98     6387 
102d 490d 1098 0003 1099 1fff 20 11010001 CMPX  #$1098             8c 10 98 26 f7     6393 
1030 490d 1098 0003 1099 1fff 20 11010100 BNE   $1029              26 f7 bd 11 87     6397 
1032 490d 1098 0003 1099 1fff 20 11010100 JSR   $1187              bd 11 87 8e 10     6400 
1187 490d 1098 0003 1099 1ffd 20 11010100 LDD   $10A0              fc 10 a0 27 02     6408 
118a 0024 1098 0003 1099 1ffd 20 11010000 BEQ   $118E              27 02 8d 8d fc     6414 
118c 0024 1098 0003 1099 1ffd 20 11010000 BSR   $111B              8d 8d fc 10 9e     6417 
111b 0024 1098 0003 1099 1ffb 20 11010000 PSHS  U,X                34 50 ce 10 98     6424 
111d 0024 1098 0003 1099 1ff7 20 11010000 LDU   #$1098             ce 10 98 8e ff     6433 
1120 0024 1098 0003 1098 1ff7 20 11010000 LDX   #$FFF1             8e ff f1 8d 07     6436 
1123 0024 fff1 0003 1098 1ff7 20 11011000 BSR   $112C              8d 07 ce 10 9c     6439 
112c 0024 fff1 0003 1098 1ff5 20 11011000 PSHS  X,B,A              34 16 9f 02 8e     6446 
112e 0024 fff1 0003 1098 1ff1 20 11011000 STX   <$02               9f 02 8e 00 00     6455 
1130 0024 fff1 0003 1098 1ff1 20 11011000 LDX   #$0000             8e 00 00 9f 00     6460 
1133 0024 0000 0003 1098 1ff1 20 11010100 STX   <$00               9f 00 ec c4 10     6463 
1135 0024 0000 0003 1098 1ff1 20 11010100 LDD   ,U                 ec c4 10 93 00     6468 
1137 4967 0000 0003 1098 1ff1 20 11010000 CMPD  <$00               10 93 00 22 0b     6473 
113a 4967 0000 0003 1098 1ff1 20 11010000 BHI   $1147              22 0b 25 15 ec     6480 
1147 4967 0000 0003 1098 1ff1 20 11010000 ASL   <$03               08 03 09 02 09     6483 
1149 4967 0000 0003 1098 1ff1 20 11011001 ROL   <$02               09 02 09 01 09     6489 
114b 4967 0000 0003 1098 1ff1 20 11011001 ROL   <$01               09 01 09 00 30     6495 
114d 4967 0000 0003 1098 1ff1 20 11010000 ROL   <$00               09 00 30 01 20     6501 
114f 4967 0000 0003 1098 1ff1 20 11010100 LEAX  $1,X               30 01 20 e2 8c     6507 
1151 4967 0001 0003 1098 1ff1 20 11010000 BRA   $1135              20 e2 8c 00 00     6512 
1135 4967 0001 0003 1098 1ff1 20 11010000 LDD   ,U                 ec c4 10 93 00     6515 
1137 4967 0001 0003 1098 1ff1 20 11010000 CMPD  <$00               10 93 00 22 0b     6520 
113a 4967 0001 0003 1098 1ff1 20 11010000 BHI   $1147              22 0b 25 15 ec     6527 
1147 4967 0001 0003 1098 1ff1 20 11010000 ASL   <$03               08 03 09 02 09     6530 
1149 4967 0001 0003 1098 1ff1 20 11011001 ROL   <$02               09 02 09 01 09     6536 
114b 4967 0001 0003 1098 1ff1 20 11011001 ROL   <$01               09 01 09 00 30     6542 
114d 4967 0001 0003 1098 1ff1 20 11010000 ROL   <$00               09 00 30 01 20     6548 
114f 4967 0001 0003 1098 1ff1 20 11010100 LEAX  $1,X               30 01 20 e2 8c     6554 
1151 4967 0002 0003 1098 1ff1 20 11010000 BRA   $1135              20 e2 8c 00 00     6559 
1135 4967 0002 0003 1098 1ff1 20 11010000 LDD   ,U                 ec c4 10 93 00     6562 
1137 4967 0002 0003 1098 1ff1 20 11010000 CMPD  <$00               10 93 00 22 0b     6567 
113a 4967 0002 0003 1098 1ff1 20 11010000 BHI   $1147              22 0b 25 15 ec     6574 
1147 4967 0002 0003 1098 1ff1 20 11010000 ASL   <$03               08 03 09 02 09     6577 
1149 4967 0002 0003 1098 1ff1 20 11011001 ROL   <$02               09 02 09 01 09     6583 
114b 4967 0002 0003 1098 1ff1 20 11011001 ROL   <$01               09 01 09 00 30     6589 
114d 4967 0002 0003 1098 1ff1 20 11010000 ROL   <$00               09 00 30 01 20     6595 
114f 4967 0002 0003 1098 1ff1 20 11010100 LEAX  $1,X               30 01 20 e2 8c     6601 
1151 4967 0003 0003 1098 1ff1 20 11010000 BRA   $1135              20 e2 8c 00 00     6606 
1135 4967 0003 0003 1098 1ff1 20 11010000 LDD   ,U                 ec c4 10 93 00     6609 
1137 4967 0003 0003 1098 1ff1 20 11010000 CMPD  <$00               10 93 00 22 0b     6614 
113a 4967 0003 0003 1098 1ff1 20 11010000 BHI   $1147              22 0b 25 15 ec     6621 
1147 4967 0003 0003 1098 1ff1 20 11010000 ASL   <$03               08 03 09 02 09     6624 
1149 4967 0003 0003 1098 1ff1 20 11010011 ROL   <$02               09 02 09 01 09     6630 
114b 4967 0003 0003 1098 1ff1 20 11011001 ROL   <$01               09 01 09 00 30     6636 
114d 4967 0003 0003 1098 1ff1 20 11010000 ROL   <$00               09 00 30 01 20     6642 
114f 4967 0003 0003 1098 1ff1 20 11010100 LEAX  $1,X               30 01 20 e2 8c     6648 
1151 4967 0004 0003 1098 1ff1 20 11010000 BRA   $1135              20 e2 8c 00 00     6653 
1135 4967 0004 0003 1098 1ff1 20 11010000 LDD   ,U                 ec c4 10 93 00     6656 
1137 4967 0004 0003 1098 1ff1 20 11010000 CMPD  <$00               10 93 00 22 0b     6661 
113a 4967 0004 0003 1098 1ff1 20 11010000 BHI   $1147              22 0b 25 15 ec     6668 
1147 4967 0004 0003 1098 1ff1 20 11010000 ASL   <$03               08 03 09 02 09     6671 
1149 4967 0004 0003 1098 1ff1 20 11010000 ROL   <$02               09 02 09 01 09     6677 
114b 4967 0004 0003 1098 1ff1 20 11011001 ROL   <$01               09 01 09 00 30     6683 
114d 4967 0004 0003 1098 1ff1 20 11010000 ROL   <$00               09 00 30 01 20     6689 
114f 4967 0004 0003 1098 1ff1 20 11010100 LEAX  $1,X               30 01 20 e2 8c     6695 
1151 4967 0005 0003 1098 1ff1 20 11010000 BRA   $1135              20 e2 8c 00 00     6700 
1135 4967 0005 0003 1098 1ff1 20 11010000 LDD   ,U                 ec c4 10 93 00     6703 
1137 4967 0005 0003 1098 1ff1 20 11010000 CMPD  <$00               10 93 00 22 0b     6708 
113a 4967 0005 0003 1098 1ff1 20 11010000 BHI   $1147              22 0b 25 15 ec     6715 
1147 4967 0005 0003 1098 1ff1 20 11010000 ASL   <$03               08 03 09 02 09     6718 
1149 4967 0005 0003 1098 1ff1 20 11010000 ROL   <$02               09 02 09 01 09     6724 
114b 4967 0005 0003 1098 1ff1 20 11011001 ROL   <$01               09 01 09 00 30     6730 
114d 4967 0005 0003 1098 1ff1 20 11010000 ROL   <$00               09 00 30 01 20     6736 
114f 4967 0005 0003 1098 1ff1 20 11010100 LEAX  $1,X               30 01 20 e2 8c     6742 
1151 4967 0006 0003 1098 1ff1 20 11010000 BRA   $1135              20 e2 8c 00 00     6747 
1135 4967 0006 0003 1098 1ff1 20 11010000 LDD   ,U                 ec c4 10 93 00     6750 
1137 4967 0006 0003 1098 1ff1 20 11010000 CMPD  <$00               10 93 00 22 0b     6755 
113a 4967 0006 0003 1098 1ff1 20 11010000 BHI   $1147              22 0b 25 15 ec     6762 
1147 4967 0006 0003 1098 1ff1 20 11010000 ASL   <$03               08 03 09 02 09     6765 
1149 4967 0006 0003 1098 1ff1 20 11011010 ROL   <$02               09 02 09 01 09     6771 
114b 4967 0006 0003 1098 1ff1 20 11011001 ROL   <$01               09 01 09 00 30     6777 
114d 4967 0006 0003 1098 1ff1 20 11010000 ROL   <$00               09 00 30 01 20     6783 
114f 4967 0006 0003 1098 1ff1 20 11010100 LEAX  $1,X               30 01 20 e2 8c     6789 
1151 4967 0007 0003 1098 1ff1 20 11010000 BRA   $1135              20 e2 8c 00 00     6794 
1135 4967 0007 0003 1098 1ff1 20 11010000 LDD   ,U                 ec c4 10 93 00     6797 
1137 4967 0007 0003 1098 1ff1 20 11010000 CMPD  <$00               10 93 00 22 0b     6802 
113a 4967 0007 0003 1098 1ff1 20 11010000 BHI   $1147              22 0b 25 15 ec     6809 
1147 4967 0007 0003 1098 1ff1 20 11010000 ASL   <$03               08 03 09 02 09     6812 
1149 4967 0007 0003 1098 1ff1 20 11010111 ROL   <$02               09 02 09 01 09     6818 
114b 4967 0007 0003 1098 1ff1 20 11011001 ROL   <$01               09 01 09 00 30     6824 
114d 4967 0007 0003 1098 1ff1 20 11011010 ROL   <$00               09 00 30 01 20     6830 
114f 4967 0007 0003 1098 1ff1 20 11010100 LEAX  $1,X               30 01 20 e2 8c     6836 
1151 4967 0008 0003 1098 1ff1 20 11010000 BRA   $1135              20 e2 8c 00 00     6841 
1135 4967 0008 0003 1098 1ff1 20 11010000 LDD   ,U                 ec c4 10 93 00     6844 
1137 4967 0008 0003 1098 1ff1 20 11010000 CMPD  <$00               10 93 00 22 0b     6849 
113a 4967 0008 0003 1098 1ff1 20 11010000 BHI   $1147              22 0b 25 15 ec     6856 
1147 4967 0008 0003 1098 1ff1 20 11010000 ASL   <$03               08 03 09 02 09     6859 
1149 4967 0008 0003 1098 1ff1 20 11010100 ROL   <$02               09 02 09 01 09     6865 
114b 4967 0008 0003 1098 1ff1 20 11011001 ROL   <$01               09 01 09 00 30     6871 
114d 4967 0008 0003 1098 1ff1 20 11011001 ROL   <$00               09 00 30 01 20     6877 
114f 4967 0008 0003 1098 1ff1 20 11010000 LEAX  $1,X               30 01 20 e2 8c     6883 
1151 4967 0009 0003 1098 1ff1 20 11010000 BRA   $1135              20 e2 8c 00 00     6888 
1135 4967 0009 0003 1098 1ff1 20 11010000 LDD   ,U                 ec c4 10 93 00     6891 
1137 4967 0009 0003 1098 1ff1 20 11010000 CMPD  <$00               10 93 00 22 0b     6896 
113a 4967 0009 0003 1098 1ff1 20 11010000 BHI   $1147              22 0b 25 15 ec     6903 
1147 4967 0009 0003 1098 1ff1 20 11010000 ASL   <$03               08 03 09 02 09     6906 
1149 4967 0009 0003 1098 1ff1 20 11010100 ROL   <$02               09 02 09 01 09     6912 
114b 4967 0009 0003 1098 1ff1 20 11011001 ROL   <$01               09 01 09 00 30     6918 
114d 4967 0009 0003 1098 1ff1 20 11011001 ROL   <$00               09 00 30 01 20     6924 
114f 4967 0009 0003 1098 1ff1 20 11010000 LEAX  $1,X               30 01 20 e2 8c     6930 
1151 4967 000a 0003 1098 1ff1 20 11010000 BRA   $1135              20 e2 8c 00 00     6935 
1135 4967 000a 0003 1098 1ff1 20 11010000 LDD   ,U                 ec c4 10 93 00     6938 
1137 4967 000a 0003 1098 1ff1 20 11010000 CMPD  <$00               10 93 00 22 0b     6943 
113a 4967 000a 0003 1098 1ff1 20 11010000 BHI   $1147              22 0b 25 15 ec     6950 
1147 4967 000a 0003 1098 1ff1 20 11010000 ASL   <$03               08 03 09 02 09     6953 
1149 4967 000a 0003 1098 1ff1 20 11010100 ROL   <$02               09 02 09 01 09     6959 
114b 4967 000a 0003 1098 1ff1 20 11011001 ROL   <$01               09 01 09 00 30     6965 
114d 4967 000a 0003 1098 1ff1 20 11011001 ROL   <$00               09 00 30 01 20     6971 
114f 4967 000a 0003 1098 1ff1 20 11010000 LEAX  $1,X               30 01 20 e2 8c     6977 
1151 4967 000b 0003 1098 1ff1 20 11010000 BRA   $1135              20 e2 8c 00 00     6982 
1135 4967 000b 0003 1098 1ff1 20 11010000 LDD   ,U                 ec c4 10 93 00     6985 
1137 4967 000b 0003 1098 1ff1 20 11010000 CMPD  <$00               10 93 00 22 0b     6990 
113a 4967 000b 0003 1098 1ff1 20 11010000 BHI   $1147              22 0b 25 15 ec     6997 
1147 4967 000b 0003 1098 1ff1 20 11010000 ASL   <$03               08 03 09 02 09     7000 
1149 4967 000b 0003 1098 1ff1 20 11010100 ROL   <$02               09 02 09 01 09     7006 
114b 4967 000b 0003 1098 1ff1 20 11010011 ROL   <$01               09 01 09 00 30     7012 
114d 4967 000b 0003 1098 1ff1 20 11011001 ROL   <$00               09 00 30 01 20     7018 
114f 4967 000b 0003 1098 1ff1 20 11010000 LEAX  $1,X               30 01 20 e2 8c     7024 
1151 4967 000c 0003 1098 1ff1 20 11010000 BRA   $1135              20 e2 8c 00 00     7029 
1135 4967 000c 0003 1098 1ff1 20 11010000 LDD   ,U                 ec c4 10 93 00     7032 
1137 4967 000c 0003 1098 1ff1 20 11010000 CMPD  <$00               10 93 00 22 0b     7037 
113a 4967 000c 0003 1098 1ff1 20 11010000 BHI   $1147              22 0b 25 15 ec     7044 
1147 4967 000c 0003 1098 1ff1 20 11010000 ASL   <$03               08 03 09 02 09     7047 
1149 4967 000c 0003 1098 1ff1 20 11010100 ROL   <$02               09 02 09 01 09     7053 
114b 4967 000c 0003 1098 1ff1 20 11010000 ROL   <$01               09 01 09 00 30     7059 
114d 4967 000c 0003 1098 1ff1 20 11011001 ROL   <$00               09 00 30 01 20     7065 
114f 4967 000c 0003 1098 1ff1 20 11010000 LEAX  $1,X               30 01 20 e2 8c     7071 
1151 4967 000d 0003 1098 1ff1 20 11010000 BRA   $1135              20 e2 8c 00 00     7076 
1135 4967 000d 0003 1098 1ff1 20 11010000 LDD   ,U                 ec c4 10 93 00     7079 
1137 4967 000d 0003 1098 1ff1 20 11010000 CMPD  <$00               10 93 00 22 0b     7084 
113a 4967 000d 0003 1098 1ff1 20 11010000 BHI   $1147              22 0b 25 15 ec     7091 
1147 4967 000d 0003 1098 1ff1 20 11010000 ASL   <$03               08 03 09 02 09     7094 
1149 4967 000d 0003 1098 1ff1 20 11010100 ROL   <$02               09 02 09 01 09     7100 
114b 4967 000d 0003 1098 1ff1 20 11010000 ROL   <$01               09 01 09 00 30     7106 
114d 4967 000d 0003 1098 1ff1 20 11011001 ROL   <$00               09 00 30 01 20     7112 
114f 4967 000d 0003 1098 1ff1 20 11010000 LEAX  $1,X               30 01 20 e2 8c     7118 
1151 4967 000e 0003 1098 1ff1 20 11010000 BRA   $1135              20 e2 8c 00 00     7123 
1135 4967 000e 0003 1098 1ff1 20 11010000 LDD   ,U                 ec c4 10 93 00     7126 
1137 4967 000e 0003 1098 1ff1 20 11010000 CMPD  <$00               10 93 00 22 0b     7131 
113a 4967 000e 0003 1098 1ff1 20 11010000 BHI   $1147              22 0b 25 15 ec     7138 
1147 4967 000e 0003 1098 1ff1 20 11010000 ASL   <$03               08 03 09 02 09     7141 
1149 4967 000e 0003 1098 1ff1 20 11010100 ROL   <$02               09 02 09 01 09     7147 
114b 4967 000e 0003 1098 1ff1 20 11011010 ROL   <$01               09 01 09 00 30     7153 
114d 4967 000e 0003 1098 1ff1 20 11011001 ROL   <$00               09 00 30 01 20     7159 
114f 4967 000e 0003 1098 1ff1 20 11010000 LEAX  $1,X               30 01 20 e2 8c     7165 
1151 4967 000f 0003 1098 1ff1 20 11010000 BRA   $1135              20 e2 8c 00 00     7170 
1135 4967 000f 0003 1098 1ff1 20 11010000 LDD   ,U                 ec c4 10 93 00     7173 
1137 4967 000f 0003 1098 1ff1 20 11010000 CMPD  <$00               10 93 00 22 0b     7178 
113a 4967 000f 0003 1098 1ff1 20 11011001 BHI   $1147              22 0b 25 15 ec     7185 
113c 4967 000f 0003 1098 1ff1 20 11011001 BCS   $1153              25 15 ec 42 10     7188 
1153 4967 000f 0003 1098 1ff1 20 11011001 CMPX  #$0000             8c 00 00 27 2d     7191 
1156 4967 000f 0003 1098 1ff1 20 11010000 BEQ   $1185              27 2d 04 00 06     7195 
1158 4967 000f 0003 1098 1ff1 20 11010000 LSR   <$00               04 00 06 01 06     7198 
115a 4967 000f 0003 1098 1ff1 20 11010001 ROR   <$01               06 01 06 02 06     7204 
115c 4967 000f 0003 1098 1ff1 20 11011000 ROR   <$02               06 02 06 03 dc     7210 
115e 4967 000f 0003 1098 1ff1 20 11010000 ROR   <$03               06 03 dc 00 10     7216 
1160 4967 000f 0003 1098 1ff1 20 11010100 LDD   <$00               dc 00 10 a3 c4     7222 
1162 3ffc 000f 0003 1098 1ff1 20 11010000 CMPD  ,U                 10 a3 c4 25 09     7227 
1165 3ffc 000f 0003 1098 1ff1 20 11011001 BCS   $1170              25 09 22 18 dc     7234 
1170 3ffc 000f 0003 1098 1ff1 20 11011001 LDD   $2,U               ec 42 93 02 ed     7237 
1172 4543 000f 0003 1098 1ff1 20 11010001 SUBD  <$02               93 02 ed 42 ec     7243 
1174 0543 000f 0003 1098 1ff1 20 11010000 STD   $2,U               ed 42 ec c4 24     7249 
1176 0543 000f 0003 1098 1ff1 20 11010000 LDD   ,U                 ec c4 24 03 83     7255 
1178 4967 000f 0003 1098 1ff1 20 11010000 BCC   $117D              24 03 83 00 01     7260 
117d 4967 000f 0003 1098 1ff1 20 11010000 SUBD  <$00               93 00 ed c4 30     7263 
117f 096b 000f 0003 1098 1ff1 20 11010000 STD   ,U                 ed c4 30 1f 26     7269 
1181 096b 000f 0003 1098 1ff1 20 11010000 LEAX  -$1,X              30 1f 26 d3 35     7274 
1183 096b 000e 0003 1098 1ff1 20 11010000 BNE   $1158              26 d3 35 96 fc     7279 
1158 096b 000e 0003 1098 1ff1 20 11010000 LSR   <$00               04 00 06 01 06     7282 
115a 096b 000e 0003 1098 1ff1 20 11010001 ROR   <$01               06 01 06 02 06     7288 
115c 096b 000e 0003 1098 1ff1 20 11011000 ROR   <$02               06 02 06 03 dc     7294 
115e 096b 000e 0003 1098 1ff1 20 11010000 ROR   <$03               06 03 dc 00 10     7300 
1160 096b 000e 0003 1098 1ff1 20 11010100 LDD   <$00               dc 00 10 a3 c4     7306 
1162 1ffe 000e 0003 1098 1ff1 20 11010000 CMPD  ,U                 10 a3 c4 25 09     7311 
1165 1ffe 000e 0003 1098 1ff1 20 11010000 BCS   $1170              25 09 22 18 dc     7318 
1167 1ffe 000e 0003 1098 1ff1 20 11010000 BHI   $1181              22 18 dc 02 10     7321 
1181 1ffe 000e 0003 1098 1ff1 20 11010000 LEAX  -$1,X              30 1f 26 d3 35     7324 
1183 1ffe 000d 0003 1098 1ff1 20 11010000 BNE   $1158              26 d3 35 96 fc     7329 
1158 1ffe 000d 0003 1098 1ff1 20 11010000 LSR   <$00               04 00 06 01 06     7332 
115a 1ffe 000d 0003 1098 1ff1 20 11010001 ROR   <$01               06 01 06 02 06     7338 
115c 1ffe 000d 0003 1098 1ff1 20 11011000 ROR   <$02               06 02 06 03 dc     7344 
115e 1ffe 000d 0003 1098 1ff1 20 11010000 ROR   <$03               06 03 dc 00 10     7350 
1160 1ffe 000d 0003 1098 1ff1 20 11010100 LDD   <$00               dc 00 10 a3 c4     7356 
1162 0fff 000d 0003 1098 1ff1 20 11010000 CMPD  ,U                 10 a3 c4 25 09     7361 
1165 0fff 000d 0003 1098 1ff1 20 11010000 BCS   $1170              25 09 22 18 dc     7368 
1167 0fff 000d 0003 1098 1ff1 20 11010000 BHI   $1181              22 18 dc 02 10     7371 
1181 0fff 000d 0003 1098 1ff1 20 11010000 LEAX  -$1,X              30 1f 26 d3 35     7374 
1183 0fff 000c 0003 1098 1ff1 20 11010000 BNE   $1158              26 d3 35 96 fc     7379 
1158 0fff 000c 0003 1098 1ff1 20 11010000 LSR   <$00               04 00 06 01 06     7382 
115a 0fff 000c 0003 1098 1ff1 20 11010001 ROR   <$01               06 01 06 02 06     7388 
115c 0fff 000c 0003 1098 1ff1 20 11011001 ROR   <$02               06 02 06 03 dc     7394 
115e 0fff 000c 0003 1098 1ff1 20 11011000 ROR   <$03               06 03 dc 00 10     7400 
1160 0fff 000c 0003 1098 1ff1 20 11010100 LDD   <$00               dc 00 10 a3 c4     7406 
1162 07ff 000c 0003 1098 1ff1 20 11010000 CMPD  ,U                 10 a3 c4 25 09     7411 
1165 07ff 000c 0003 1098 1ff1 20 11011001 BCS   $1170              25 09 22 18 dc     7418 
1170 07ff 000c 0003 1098 1ff1 20 11011001 LDD   $2,U               ec 42 93 02 ed     7421 
1172 0543 000c 0003 1098 1ff1 20 11010001 SUBD  <$02               93 02 ed 42 ec     7427 
1174 7d43 000c 0003 1098 1ff1 20 11010001 STD   $2,U               ed 42 ec c4 24     7433 
1176 7d43 000c 0003 1098 1ff1 20 11010001 LDD   ,U                 ec c4 24 03 83     7439 
1178 096b 000c 0003 1098 1ff1 20 11010001 BCC   $117D              24 03 83 00 01     7444 
117a 096b 000c 0003 1098 1ff1 20 11010001 SUBD  #$0001             83 00 01 93 00     7447 
117d 096a 000c 0003 1098 1ff1 20 11010000 SUBD  <$00               93 00 ed c4 30     7451 
117f 016b 000c 0003 1098 1ff1 20 11010000 STD   ,U                 ed c4 30 1f 26     7457 
1181 016b 000c 0003 1098 1ff1 20 11010000 LEAX  -$1,X              30 1f 26 d3 35     7462 
1183 016b 000b 0003 1098 1ff1 20 11010000 BNE   $1158              26 d3 35 96 fc     7467 
1158 016b 000b 0003 1098 1ff1 20 11010000 LSR   <$00               04 00 06 01 06     7470 
115a 016b 000b 0003 1098 1ff1 20 11010001 ROR   <$01               06 01 06 02 06     7476 
115c 016b 000b 0003 1098 1ff1 20 11011001 ROR   <$02               06 02 06 03 dc     7482 
115e 016b 000b 0003 1098 1ff1 20 11011000 ROR   <$03               06 03 dc 00 10     7488 
1160 016b 000b 0003 1098 1ff1 20 11010100 LDD   <$00               dc 00 10 a3 c4     7494 
1162 03ff 000b 0003 1098 1ff1 20 11010000 CMPD  ,U                 10 a3 c4 25 09     7499 
1165 03ff 000b 0003 1098 1ff1 20 11010000 BCS   $1170              25 09 22 18 dc     7506 
1167 03ff 000b 0003 1098 1ff1 20 11010000 BHI   $1181              22 18 dc 02 10     7509 
1181 03ff 000b 0003 1098 1ff1 20 11010000 LEAX  -$1,X              30 1f 26 d3 35     7512 
1183 03ff 000a 0003 1098 1ff1 20 11010000 BNE   $1158              26 d3 35 96 fc     7517 
1158 03ff 000a 0003 1098 1ff1 20 11010000 LSR   <$00               04 00 06 01 06     7520 
115a 03ff 000a 0003 1098 1ff1 20 11010001 ROR   <$01               06 01 06 02 06     7526 
115c 03ff 000a 0003 1098 1ff1 20 11011001 ROR   <$02               06 02 06 03 dc     7532 
115e 03ff 000a 0003 1098 1ff1 20 11011000 ROR   <$03               06 03 dc 00 10     7538 
1160 03ff 000a 0003 1098 1ff1 20 11010100 LDD   <$00               dc 00 10 a3 c4     7544 
1162 01ff 000a 0003 1098 1ff1 20 11010000 CMPD  ,U                 10 a3 c4 25 09     7549 
1165 01ff 000a 0003 1098 1ff1 20 11010000 BCS   $1170              25 09 22 18 dc     7556 
1167 01ff 000a 0003 1098 1ff1 20 11010000 BHI   $1181              22 18 dc 02 10     7559 
1181 01ff 000a 0003 1098 1ff1 20 11010000 LEAX  -$1,X              30 1f 26 d3 35     7562 
1183 01ff 0009 0003 1098 1ff1 20 11010000 BNE   $1158              26 d3 35 96 fc     7567 
1158 01ff 0009 0003 1098 1ff1 20 11010000 LSR   <$00               04 00 06 01 06     7570 
115a 01ff 0009 0003 1098 1ff1 20 11010101 ROR   <$01               06 01 06 02 06     7576 
115c 01ff 0009 0003 1098 1ff1 20 11011001 ROR   <$02               06 02 06 03 dc     7582 
115e 01ff 0009 0003 1098 1ff1 20 11011000 ROR   <$03               06 03 dc 00 10     7588 
1160 01ff 0009 0003 1098 1ff1 20 11010100 LDD   <$00               dc 00 10 a3 c4     7594 
1162 00ff 0009 0003 1098 1ff1 20 11010000 CMPD  ,U                 10 a3 c4 25 09     7599 
1165 00ff 0009 0003 1098 1ff1 20 11011001 BCS   $1170              25 09 22 18 dc     7606 
1170 00ff 0009 0003 1098 1ff1 20 11011001 LDD   $2,U               ec 42 93 02 ed     7609 
1172 7d43 0009 0003 1098 1ff1 20 11010001 SUBD  <$02               93 02 ed 42 ec     7615 
1174 8c43 0009 0003 1098 1ff1 20 11011011 STD   $2,U               ed 42 ec c4 24     7621 
1176 8c43 0009 0003 1098 1ff1 20 11011001 LDD   ,U                 ec c4 24 03 83     7627 
1178 016b 0009 0003 1098 1ff1 20 11010001 BCC   $117D              24 03 83 00 01     7632 
117a 016b 0009 0003 1098 1ff1 20 11010001 SUBD  #$0001             83 00 01 93 00     7635 
117d 016a 0009 0003 1098 1ff1 20 11010000 SUBD  <$00               93 00 ed c4 30     7639 
117f 006b 0009 0003 1098 1ff1 20 11010000 STD   ,U                 ed c4 30 1f 26     7645 
1181 006b 0009 0003 1098 1ff1 20 11010000 LEAX  -$1,X              30 1f 26 d3 35     7650 
1183 006b 0008 0003 1098 1ff1 20 11010000 BNE   $1158              26 d3 35 96 fc     7655 
1158 006b 0008 0003 1098 1ff1 20 11010000 LSR   <$00               04 00 06 01 06     7658 
115a 006b 0008 0003 1098 1ff1 20 11010100 ROR   <$01               06 01 06 02 06     7664 
115c 006b 0008 0003 1098 1ff1 20 11010001 ROR   <$02               06 02 06 03 dc     7670 
115e 006b 0008 0003 1098 1ff1 20 11011001 ROR   <$03               06 03 dc 00 10     7676 
1160 006b 0008 0003 1098 1ff1 20 11011000 LDD   <$00               dc 00 10 a3 c4     7682 
1162 007f 0008 0003 1098 1ff1 20 11010000 CMPD  ,U                 10 a3 c4 25 09     7687 
1165 007f 0008 0003 1098 1ff1 20 11010000 BCS   $1170              25 09 22 18 dc     7694 
1167 007f 0008 0003 1098 1ff1 20 11010000 BHI   $1181              22 18 dc 02 10     7697 
1181 007f 0008 0003 1098 1ff1 20 11010000 LEAX  -$1,X              30 1f 26 d3 35     7700 
1183 007f 0007 0003 1098 1ff1 20 11010000 BNE   $1158              26 d3 35 96 fc     7705 
1158 007f 0007 0003 1098 1ff1 20 11010000 LSR   <$00               04 00 06 01 06     7708 
115a 007f 0007 0003 1098 1ff1 20 11010100 ROR   <$01               06 01 06 02 06     7714 
115c 007f 0007 0003 1098 1ff1 20 11010001 ROR   <$02               06 02 06 03 dc     7720 
115e 007f 0007 0003 1098 1ff1 20 11011000 ROR   <$03               06 03 dc 00 10     7726 
1160 007f 0007 0003 1098 1ff1 20 11010000 LDD   <$00               dc 00 10 a3 c4     7732 
1162 003f 0007 0003 1098 1ff1 20 11010000 CMPD  ,U                 10 a3 c4 25 09     7737 
1165 003f 0007 0003 1098 1ff1 20 11011001 BCS   $1170              25 09 22 18 dc     7744 
1170 003f 0007 0003 1098 1ff1 20 11011001 LDD   $2,U               ec 42 93 02 ed     7747 
1172 8c43 0007 0003 1098 1ff1 20 11011001 SUBD  <$02               93 02 ed 42 ec     7753 
1174 9003 0007 0003 1098 1ff1 20 11011001 STD   $2,U               ed 42 ec c4 24     7759 
1176 9003 0007 0003 1098 1ff1 20 11011001 LDD   ,U                 ec c4 24 03 83     7765 
1178 006b 0007 0003 1098 1ff1 20 11010001 BCC   $117D              24 03 83 00 01     7770 
117a 006b 0007 0003 1098 1ff1 20 11010001 SUBD  #$0001             83 00 01 93 00     7773 
117d 006a 0007 0003 1098 1ff1 20 11010000 SUBD  <$00               93 00 ed c4 30     7777 
117f 002b 0007 0003 1098 1ff1 20 11010000 STD   ,U                 ed c4 30 1f 26     7783 
1181 002b 0007 0003 1098 1ff1 20 11010000 LEAX  -$1,X              30 1f 26 d3 35     7788 
1183 002b 0006 0003 1098 1ff1 20 11010000 BNE   $1158              26 d3 35 96 fc     7793 
1158 002b 0006 0003 1098 1ff1 20 11010000 LSR   <$00               04 00 06 01 06     7796 
115a 002b 0006 0003 1098 1ff1 20 11010100 ROR   <$01               06 01 06 02 06     7802 
115c 002b 0006 0003 1098 1ff1 20 11010001 ROR   <$02               06 02 06 03 dc     7808 
115e 002b 0006 0003 1098 1ff1 20 11011000 ROR   <$03               06 03 dc 00 10     7814 
1160 002b 0006 0003 1098 1ff1 20 11010000 LDD   <$00               dc 00 10 a3 c4     7820 
1162 001f 0006 0003 1098 1ff1 20 11010000 CMPD  ,U                 10 a3 c4 25 09     7825 
1165 001f 0006 0003 1098 1ff1 20 11011001 BCS   $1170              25 09 22 18 dc     7832 
1170 001f 0006 0003 1098 1ff1 20 11011001 LDD   $2,U               ec 42 93 02 ed     7835 
1172 9003 0006 0003 1098 1ff1 20 11011001 SUBD  <$02               93 02 ed 42 ec     7841 
1174 91e3 0006 0003 1098 1ff1 20 11011001 STD   $2,U               ed 42 ec c4 24     7847 
1176 91e3 0006 0003 1098 1ff1 20 11011001 LDD   ,U                 ec c4 24 03 83     7853 
1178 002b 0006 0003 1098 1ff1 20 11010001 BCC   $117D              24 03 83 00 01     7858 
117a 002b 0006 0003 1098 1ff1 20 11010001 SUBD  #$0001             83 00 01 93 00     7861 
117d 002a 0006 0003 1098 1ff1 20 11010000 SUBD  <$00               93 00 ed c4 30     7865 
117f 000b 0006 0003 1098 1ff1 20 11010000 STD   ,U                 ed c4 30 1f 26     7871 
1181 000b 0006 0003 1098 1ff1 20 11010000 LEAX  -$1,X              30 1f 26 d3 35     7876 
1183 000b 0005 0003 1098 1ff1 20 11010000 BNE   $1158              26 d3 35 96 fc     7881 
1158 000b 0005 0003 1098 1ff1 20 11010000 LSR   <$00               04 00 06 01 06     7884 
115a 000b 0005 0003 1098 1ff1 20 11010100 ROR   <$01               06 01 06 02 06     7890 
115c 000b 0005 0003 1098 1ff1 20 11010001 ROR   <$02               06 02 06 03 dc     7896 
115e 000b 0005 0003 1098 1ff1 20 11011000 ROR   <$03               06 03 dc 00 10     7902 
1160 000b 0005 0003 1098 1ff1 20 11010000 LDD   <$00               dc 00 10 a3 c4     7908 
1162 000f 0005 0003 1098 1ff1 20 11010000 CMPD  ,U                 10 a3 c4 25 09     7913 
1165 000f 0005 0003 1098 1ff1 20 11010000 BCS   $1170              25 09 22 18 dc     7920 
1167 000f 0005 0003 1098 1ff1 20 11010000 BHI   $1181              22 18 dc 02 10     7923 
1181 000f 0005 0003 1098 1ff1 20 11010000 LEAX  -$1,X              30 1f 26 d3 35     7926 
1183 000f 0004 0003 1098 1ff1 20 11010000 BNE   $1158              26 d3 35 96 fc     7931 
1158 000f 0004 0003 1098 1ff1 20 11010000 LSR   <$00               04 00 06 01 06     7934 
115a 000f 0004 0003 1098 1ff1 20 11010100 ROR   <$01               06 01 06 02 06     7940 
115c 000f 0004 0003 1098 1ff1 20 11010001 ROR   <$02               06 02 06 03 dc     7946 
115e 000f 0004 0003 1098 1ff1 20 11011001 ROR   <$03               06 03 dc 00 10     7952 
1160 000f 0004 0003 1098 1ff1 20 11011000 LDD   <$00               dc 00 10 a3 c4     7958 
1162 0007 0004 0003 1098 1ff1 20 11010000 CMPD  ,U                 10 a3 c4 25 09     7963 
1165 0007 0004 0003 1098 1ff1 20 11011001 BCS   $1170              25 09 22 18 dc     7970 
1170 0007 0004 0003 1098 1ff1 20 11011001 LDD   $2,U               ec 42 93 02 ed     7973 
1172 91e3 0004 0003 1098 1ff1 20 11011001 SUBD  <$02               93 02 ed 42 ec     7979 
1174 925b 0004 0003 1098 1ff1 20 11011001 STD   $2,U               ed 42 ec c4 24     7985 
1176 925b 0004 0003 1098 1ff1 20 11011001 LDD   ,U                 ec c4 24 03 83     7991 
1178 000b 0004 0003 1098 1ff1 20 11010001 BCC   $117D              24 03 83 00 01     7996 
117a 000b 0004 0003 1098 1ff1 20 11010001 SUBD  #$0001             83 00 01 93 00     7999 
117d 000a 0004 0003 1098 1ff1 20 11010000 SUBD  <$00               93 00 ed c4 30     8003 
117f 0003 0004 0003 1098 1ff1 20 11010000 STD   ,U                 ed c4 30 1f 26     8009 
1181 0003 0004 0003 1098 1ff1 20 11010000 LEAX  -$1,X              30 1f 26 d3 35     8014 
1183 0003 0003 0003 1098 1ff1 20 11010000 BNE   $1158              26 d3 35 96 fc     8019 
1158 0003 0003 0003 1098 1ff1 20 11010000 LSR   <$00               04 00 06 01 06     8022 
115a 0003 0003 0003 1098 1ff1 20 11010100 ROR   <$01               06 01 06 02 06     8028 
115c 0003 0003 0003 1098 1ff1 20 11010001 ROR   <$02               06 02 06 03 dc     8034 
115e 0003 0003 0003 1098 1ff1 20 11011001 ROR   <$03               06 03 dc 00 10     8040 
1160 0003 0003 0003 1098 1ff1 20 11011000 LDD   <$00               dc 00 10 a3 c4     8046 
1162 0003 0003 0003 1098 1ff1 20 11010000 CMPD  ,U                 10 a3 c4 25 09     8051 
1165 0003 0003 0003 1098 1ff1 20 11010100 BCS   $1170              25 09 22 18 dc     8058 
1167 0003 0003 0003 1098 1ff1 20 11010100 BHI   $1181              22 18 dc 02 10     8061 
1169 0003 0003 0003 1098 1ff1 20 11010100 LDD   <$02               dc 02 10 a3 42     8064 
116b ffc4 0003 0003 1098 1ff1 20 11011000 CMPD  $2,U               10 a3 42 22 11     8069 
116e ffc4 0003 0003 1098 1ff1 20 11010000 BHI   $1181              22 11 ec 42 93     8077 
1181 ffc4 0003 0003 1098 1ff1 20 11010000 LEAX  -$1,X              30 1f 26 d3 35     8080 
1183 ffc4 0002 0003 1098 1ff1 20 11010000 BNE   $1158              26 d3 35 96 fc     8085 
1158 ffc4 0002 0003 1098 1ff1 20 11010000 LSR   <$00               04 00 06 01 06     8088 
115a ffc4 0002 0003 1098 1ff1 20 11010100 ROR   <$01               06 01 06 02 06     8094 
115c ffc4 0002 0003 1098 1ff1 20 11010001 ROR   <$02               06 02 06 03 dc     8100 
115e ffc4 0002 0003 1098 1ff1 20 11011001 ROR   <$03               06 03 dc 00 10     8106 
1160 ffc4 0002 0003 1098 1ff1 20 11011000 LDD   <$00               dc 00 10 a3 c4     8112 
1162 0001 0002 0003 1098 1ff1 20 11010000 CMPD  ,U                 10 a3 c4 25 09     8117 
1165 0001 0002 0003 1098 1ff1 20 11011001 BCS   $1170              25 09 22 18 dc     8124 
1170 0001 0002 0003 1098 1ff1 20 11011001 LDD   $2,U               ec 42 93 02 ed     8127 
1172 925b 0002 0003 1098 1ff1 20 11011001 SUBD  <$02               93 02 ed 42 ec     8133 
1174 9279 0002 0003 1098 1ff1 20 11011001 STD   $2,U               ed 42 ec c4 24     8139 
1176 9279 0002 0003 1098 1ff1 20 11011001 LDD   ,U                 ec c4 24 03 83     8145 
1178 0003 0002 0003 1098 1ff1 20 11010001 BCC   $117D              24 03 83 00 01     8150 
117a 0003 0002 0003 1098 1ff1 20 11010001 SUBD  #$0001             83 00 01 93 00     8153 
117d 0002 0002 0003 1098 1ff1 20 11010000 SUBD  <$00               93 00 ed c4 30     8157 
117f 0001 0002 0003 1098 1ff1 20 11010000 STD   ,U                 ed c4 30 1f 26     8163 
1181 0001 0002 0003 1098 1ff1 20 11010000 LEAX  -$1,X              30 1f 26 d3 35     8168 
1183 0001 0001 0003 1098 1ff1 20 11010000 BNE   $1158              26 d3 35 96 fc     8173 
1158 0001 0001 0003 1098 1ff1 20 11010000 LSR   <$00               04 00 06 01 06     8176 
115a 0001 0001 0003 1098 1ff1 20 11010100 ROR   <$01               06 01 06 02 06     8182 
115c 0001 0001 0003 1098 1ff1 20 11010101 ROR   <$02               06 02 06 03 dc     8188 
115e 0001 0001 0003 1098 1ff1 20 11011001 ROR   <$03               06 03 dc 00 10     8194 
1160 0001 0001 0003 1098 1ff1 20 11011000 LDD   <$00               dc 00 10 a3 c4     8200 
1162 0000 0001 0003 1098 1ff1 20 11010100 CMPD  ,U                 10 a3 c4 25 09     8205 
1165 0000 0001 0003 1098 1ff1 20 11011001 BCS   $1170              25 09 22 18 dc     8212 
1170 0000 0001 0003 1098 1ff1 20 11011001 LDD   $2,U               ec 42 93 02 ed     8215 
1172 9279 0001 0003 1098 1ff1 20 11011001 SUBD  <$02               93 02 ed 42 ec     8221 
1174 9288 0001 0003 1098 1ff1 20 11011001 STD   $2,U               ed 42 ec c4 24     8227 
1176 9288 0001 0003 1098 1ff1 20 11011001 LDD   ,U                 ec c4 24 03 83     8233 
1178 0001 0001 0003 1098 1ff1 20 11010001 BCC   $117D              24 03 83 00 01     8238 
117a 0001 0001 0003 1098 1ff1 20 11010001 SUBD  #$0001             83 00 01 93 00     8241 
117d 0000 0001 0003 1098 1ff1 20 11010100 SUBD  <$00               93 00 ed c4 30     8245 
117f 0000 0001 0003 1098 1ff1 20 11010100 STD   ,U                 ed c4 30 1f 26     8251 
1181 0000 0001 0003 1098 1ff1 20 11010100 LEAX  -$1,X              30 1f 26 d3 35     8256 
1183 0000 0000 0003 1098 1ff1 20 11010100 BNE   $1158              26 d3 35 96 fc     8261 
1185 0000 0000 0003 1098 1ff1 20 11010100 PULS  A,B,X,PC           35 96 fc 10 a0     8264 
1125 0024 fff1 0003 1098 1ff7 20 11010100 LDU   #$109C             ce 10 9c 8d 02     8275 
1128 0024 fff1 0003 109c 1ff7 20 11010000 BSR   $112C              8d 02 35 d0 34     8278 
112c 0024 fff1 0003 109c 1ff5 20 11010000 PSHS  X,B,A              34 16 9f 02 8e     8285 
112e 0024 fff1 0003 109c 1ff1 20 11010000 STX   <$02               9f 02 8e 00 00     8294 
1130 0024 fff1 0003 109c 1ff1 20 11011000 LDX   #$0000             8e 00 00 9f 00     8299 
1133 0024 0000 0003 109c 1ff1 20 11010100 STX   <$00               9f 00 ec c4 10     8302 
1135 0024 0000 0003 109c 1ff1 20 11010100 LDD   ,U                 ec c4 10 93 00     8307 
1137 2942 0000 0003 109c 1ff1 20 11010000 CMPD  <$00               10 93 00 22 0b     8312 
113a 2942 0000 0003 109c 1ff1 20 11010000 BHI   $1147              22 0b 25 15 ec     8319 
1147 2942 0000 0003 109c 1ff1 20 11010000 ASL   <$03               08 03 09 02 09     8322 
1149 2942 0000 0003 109c 1ff1 20 11011001 ROL   <$02               09 02 09 01 09     8328 
114b 2942 0000 0003 109c 1ff1 20 11011001 ROL   <$01               09 01 09 00 30     8334 
114d 2942 0000 0003 109c 1ff1 20 11010000 ROL   <$00               09 00 30 01 20     8340 
114f 2942 0000 0003 109c 1ff1 20 11010100 LEAX  $1,X               30 01 20 e2 8c     8346 
1151 2942 0001 0003 109c 1ff1 20 11010000 BRA   $1135              20 e2 8c 00 00     8351 
1135 2942 0001 0003 109c 1ff1 20 11010000 LDD   ,U                 ec c4 10 93 00     8354 
1137 2942 0001 0003 109c 1ff1 20 11010000 CMPD  <$00               10 93 00 22 0b     8359 
113a 2942 0001 0003 109c 1ff1 20 11010000 BHI   $1147              22 0b 25 15 ec     8366 
1147 2942 0001 0003 109c 1ff1 20 11010000 ASL   <$03               08 03 09 02 09     8369 
1149 2942 0001 0003 109c 1ff1 20 11011001 ROL   <$02               09 02 09 01 09     8375 
114b 2942 0001 0003 109c 1ff1 20 11011001 ROL   <$01               09 01 09 00 30     8381 
114d 2942 0001 0003 109c 1ff1 20 11010000 ROL   <$00               09 00 30 01 20     8387 
114f 2942 0001 0003 109c 1ff1 20 11010100 LEAX  $1,X               30 01 20 e2 8c     8393 
1151 2942 0002 0003 109c 1ff1 20 11010000 BRA   $1135              20 e2 8c 00 00     8398 
1135 2942 0002 0003 109c 1ff1 20 11010000 LDD   ,U                 ec c4 10 93 00     8401 
1137 2942 0002 0003 109c 1ff1 20 11010000 CMPD  <$00               10 93 00 22 0b     8406 
113a 2942 0002 0003 109c 1ff1 20 11010000 BHI   $1147              22 0b 25 15 ec     8413 
1147 2942 0002 0003 109c 1ff1 20 11010000 ASL   <$03               08 03 09 02 09     8416 
1149 2942 0002 0003 109c 1ff1 20 11011001 ROL   <$02               09 02 09 01 09     8422 
114b 2942 0002 0003 109c 1ff1 20 11011001 ROL   <$01               09 01 09 00 30     8428 
114d 2942 0002 0003 109c 1ff1 20 11010000 ROL   <$00               09 00 30 01 20     8434 
114f 2942 0002 0003 109c 1ff1 20 11010100 LEAX  $1,X               30 01 20 e2 8c     8440 
1151 2942 0003 0003 109c 1ff1 20 11010000 BRA   $1135              20 e2 8c 00 00     8445 
1135 2942 0003 0003 109c 1ff1 20 11010000 LDD   ,U                 ec c4 10 93 00     8448 
1137 2942 0003 0003 109c 1ff1 20 11010000 CMPD  <$00               10 93 00 22 0b     8453 
113a 2942 0003 0003 109c 1ff1 20 11010000 BHI   $1147              22 0b 25 15 ec     8460 
1147 2942 0003 0003 109c 1ff1 20 11010000 ASL   <$03               08 03 09 02 09     8463 
1149 2942 0003 0003 109c 1ff1 20 11010011 ROL   <$02               09 02 09 01 09     8469 
114b 2942 0003 0003 109c 1ff1 20 11011001 ROL   <$01               09 01 09 00 30     8475 
114d 2942 0003 0003 109c 1ff1 20 11010000 ROL   <$00               09 00 30 01 20     8481 
114f 2942 0003 0003 109c 1ff1 20 11010100 LEAX  $1,X               30 01 20 e2 8c     8487 
1151 2942 0004 0003 109c 1ff1 20 11010000 BRA   $1135              20 e2 8c 00 00     8492 
1135 2942 0004 0003 109c 1ff1 20 11010000 LDD   ,U                 ec c4 10 93 00     8495 
1137 2942 0004 0003 109c 1ff1 20 11010000 CMPD  <$00               10 93 00 22 0b     8500 
113a 2942 0004 0003 109c 1ff1 20 11010000 BHI   $1147              22 0b 25 15 ec     8507 
1147 2942 0004 0003 109c 1ff1 20 11010000 ASL   <$03               08 03 09 02 09     8510 
1149 2942 0004 0003 109c 1ff1 20 11010000 ROL   <$02               09 02 09 01 09     8516 
114b 2942 0004 0003 109c 1ff1 20 11011001 ROL   <$01               09 01 09 00 30     8522 
114d 2942 0004 0003 109c 1ff1 20 11010000 ROL   <$00               09 00 30 01 20     8528 
114f 2942 0004 0003 109c 1ff1 20 11010100 LEAX  $1,X               30 01 20 e2 8c     8534 
1151 2942 0005 0003 109c 1ff1 20 11010000 BRA   $1135              20 e2 8c 00 00     8539 
1135 2942 0005 0003 109c 1ff1 20 11010000 LDD   ,U                 ec c4 10 93 00     8542 
1137 2942 0005 0003 109c 1ff1 20 11010000 CMPD  <$00               10 93 00 22 0b     8547 
113a 2942 0005 0003 109c 1ff1 20 11010000 BHI   $1147              22 0b 25 15 ec     8554 
1147 2942 0005 0003 109c 1ff1 20 11010000 ASL   <$03               08 03 09 02 09     8557 
1149 2942 0005 0003 109c 1ff1 20 11010000 ROL   <$02               09 02 09 01 09     8563 
114b 2942 0005 0003 109c 1ff1 20 11011001 ROL   <$01               09 01 09 00 30     8569 
114d 2942 0005 0003 109c 1ff1 20 11010000 ROL   <$00               09 00 30 01 20     8575 
114f 2942 0005 0003 109c 1ff1 20 11010100 LEAX  $1,X               30 01 20 e2 8c     8581 
1151 2942 0006 0003 109c 1ff1 20 11010000 BRA   $1135              20 e2 8c 00 00     8586 
1135 2942 0006 0003 109c 1ff1 20 11010000 LDD   ,U                 ec c4 10 93 00     8589 
1137 2942 0006 0003 109c 1ff1 20 11010000 CMPD  <$00               10 93 00 22 0b     8594 
113a 2942 0006 0003 109c 1ff1 20 11010000 BHI   $1147              22 0b 25 15 ec     8601 
1147 2942 0006 0003 109c 1ff1 20 11010000 ASL   <$03               08 03 09 02 09     8604 
1149 2942 0006 0003 109c 1ff1 20 11011010 ROL   <$02               09 02 09 01 09     8610 
114b 2942 0006 0003 109c 1ff1 20 11011001 ROL   <$01               09 01 09 00 30     8616 
114d 2942 0006 0003 109c 1ff1 20 11010000 ROL   <$00               09 00 30 01 20     8622 
114f 2942 0006 0003 109c 1ff1 20 11010100 LEAX  $1,X               30 01 20 e2 8c     8628 
1151 2942 0007 0003 109c 1ff1 20 11010000 BRA   $1135              20 e2 8c 00 00     8633 
1135 2942 0007 0003 109c 1ff1 20 11010000 LDD   ,U                 ec c4 10 93 00     8636 
1137 2942 0007 0003 109c 1ff1 20 11010000 CMPD  <$00               10 93 00 22 0b     8641 
113a 2942 0007 0003 109c 1ff1 20 11010000 BHI   $1147              22 0b 25 15 ec     8648 
1147 2942 0007 0003 109c 1ff1 20 11010000 ASL   <$03               08 03 09 02 09     8651 
1149 2942 0007 0003 109c 1ff1 20 11010111 ROL   <$02               09 02 09 01 09     8657 
114b 2942 0007 0003 109c 1ff1 20 11011001 ROL   <$01               09 01 09 00 30     8663 
114d 2942 0007 0003 109c 1ff1 20 11011010 ROL   <$00               09 00 30 01 20     8669 
114f 2942 0007 0003 109c 1ff1 20 11010100 LEAX  $1,X               30 01 20 e2 8c     8675 
1151 2942 0008 0003 109c 1ff1 20 11010000 BRA   $1135              20 e2 8c 00 00     8680 
1135 2942 0008 0003 109c 1ff1 20 11010000 LDD   ,U                 ec c4 10 93 00     8683 
1137 2942 0008 0003 109c 1ff1 20 11010000 CMPD  <$00               10 93 00 22 0b     8688 
113a 2942 0008 0003 109c 1ff1 20 11010000 BHI   $1147              22 0b 25 15 ec     8695 
1147 2942 0008 0003 109c 1ff1 20 11010000 ASL   <$03               08 03 09 02 09     8698 
1149 2942 0008 0003 109c 1ff1 20 11010100 ROL   <$02               09 02 09 01 09     8704 
114b 2942 0008 0003 109c 1ff1 20 11011001 ROL   <$01               09 01 09 00 30     8710 
114d 2942 0008 0003 109c 1ff1 20 11011001 ROL   <$00               09 00 30 01 20     8716 
114f 2942 0008 0003 109c 1ff1 20 11010000 LEAX  $1,X               30 01 20 e2 8c     8722 
1151 2942 0009 0003 109c 1ff1 20 11010000 BRA   $1135              20 e2 8c 00 00     8727 
1135 2942 0009 0003 109c 1ff1 20 11010000 LDD   ,U                 ec c4 10 93 00     8730 
1137 2942 0009 0003 109c 1ff1 20 11010000 CMPD  <$00               10 93 00 22 0b     8735 
113a 2942 0009 0003 109c 1ff1 20 11010000 BHI   $1147              22 0b 25 15 ec     8742 
1147 2942 0009 0003 109c 1ff1 20 11010000 ASL   <$03               08 03 09 02 09     8745 
1149 2942 0009 0003 109c 1ff1 20 11010100 ROL   <$02               09 02 09 01 09     8751 
114b 2942 0009 0003 109c 1ff1 20 11011001 ROL   <$01               09 01 09 00 30     8757 
114d 2942 0009 0003 109c 1ff1 20 11011001 ROL   <$00               09 00 30 01 20     8763 
114f 2942 0009 0003 109c 1ff1 20 11010000 LEAX  $1,X               30 01 20 e2 8c     8769 
1151 2942 000a 0003 109c 1ff1 20 11010000 BRA   $1135              20 e2 8c 00 00     8774 
1135 2942 000a 0003 109c 1ff1 20 11010000 LDD   ,U                 ec c4 10 93 00     8777 
1137 2942 000a 0003 109c 1ff1 20 11010000 CMPD  <$00               10 93 00 22 0b     8782 
113a 2942 000a 0003 109c 1ff1 20 11010000 BHI   $1147              22 0b 25 15 ec     8789 
1147 2942 000a 0003 109c 1ff1 20 11010000 ASL   <$03               08 03 09 02 09     8792 
1149 2942 000a 0003 109c 1ff1 20 11010100 ROL   <$02               09 02 09 01 09     8798 
114b 2942 000a 0003 109c 1ff1 20 11011001 ROL   <$01               09 01 09 00 30     8804 
114d 2942 000a 0003 109c 1ff1 20 11011001 ROL   <$00               09 00 30 01 20     8810 
114f 2942 000a 0003 109c 1ff1 20 11010000 LEAX  $1,X               30 01 20 e2 8c     8816 
1151 2942 000b 0003 109c 1ff1 20 11010000 BRA   $1135              20 e2 8c 00 00     8821 
1135 2942 000b 0003 109c 1ff1 20 11010000 LDD   ,U                 ec c4 10 93 00     8824 
1137 2942 000b 0003 109c 1ff1 20 11010000 CMPD  <$00               10 93 00 22 0b     8829 
113a 2942 000b 0003 109c 1ff1 20 11010000 BHI   $1147              22 0b 25 15 ec     8836 
1147 2942 000b 0003 109c 1ff1 20 11010000 ASL   <$03               08 03 09 02 09     8839 
1149 2942 000b 0003 109c 1ff1 20 11010100 ROL   <$02               09 02 09 01 09     8845 
114b 2942 000b 0003 109c 1ff1 20 11010011 ROL   <$01               09 01 09 00 30     8851 
114d 2942 000b 0003 109c 1ff1 20 11011001 ROL   <$00               09 00 30 01 20     8857 
114f 2942 000b 0003 109c 1ff1 20 11010000 LEAX  $1,X               30 01 20 e2 8c     8863 
1151 2942 000c 0003 109c 1ff1 20 11010000 BRA   $1135              20 e2 8c 00 00     8868 
1135 2942 000c 0003 109c 1ff1 20 11010000 LDD   ,U                 ec c4 10 93 00     8871 
1137 2942 000c 0003 109c 1ff1 20 11010000 CMPD  <$00               10 93 00 22 0b     8876 
113a 2942 000c 0003 109c 1ff1 20 11010000 BHI   $1147              22 0b 25 15 ec     8883 
1147 2942 000c 0003 109c 1ff1 20 11010000 ASL   <$03               08 03 09 02 09     8886 
1149 2942 000c 0003 109c 1ff1 20 11010100 ROL   <$02               09 02 09 01 09     8892 
114b 2942 000c 0003 109c 1ff1 20 11010000 ROL   <$01               09 01 09 00 30     8898 
114d 2942 000c 0003 109c 1ff1 20 11011001 ROL   <$00               09 00 30 01 20     8904 
114f 2942 000c 0003 109c 1ff1 20 11010000 LEAX  $1,X               30 01 20 e2 8c     8910 
1151 2942 000d 0003 109c 1ff1 20 11010000 BRA   $1135              20 e2 8c 00 00     8915 
1135 2942 000d 0003 109c 1ff1 20 11010000 LDD   ,U                 ec c4 10 93 00     8918 
1137 2942 000d 0003 109c 1ff1 20 11010000 CMPD  <$00               10 93 00 22 0b     8923 
113a 2942 000d 0003 109c 1ff1 20 11010000 BHI   $1147              22 0b 25 15 ec     8930 
1147 2942 000d 0003 109c 1ff1 20 11010000 ASL   <$03               08 03 09 02 09     8933 
1149 2942 000d 0003 109c 1ff1 20 11010100 ROL   <$02               09 02 09 01 09     8939 
114b 2942 000d 0003 109c 1ff1 20 11010000 ROL   <$01               09 01 09 00 30     8945 
114d 2942 000d 0003 109c 1ff1 20 11011001 ROL   <$00               09 00 30 01 20     8951 
114f 2942 000d 0003 109c 1ff1 20 11010000 LEAX  $1,X               30 01 20 e2 8c     8957 
1151 2942 000e 0003 109c 1ff1 20 11010000 BRA   $1135              20 e2 8c 00 00     8962 
1135 2942 000e 0003 109c 1ff1 20 11010000 LDD   ,U                 ec c4 10 93 00     8965 
1137 2942 000e 0003 109c 1ff1 20 11010000 CMPD  <$00               10 93 00 22 0b     8970 
113a 2942 000e 0003 109c 1ff1 20 11011001 BHI   $1147              22 0b 25 15 ec     8977 
113c 2942 000e 0003 109c 1ff1 20 11011001 BCS   $1153              25 15 ec 42 10     8980 
1153 2942 000e 0003 109c 1ff1 20 11011001 CMPX  #$0000             8c 00 00 27 2d     8983 
1156 2942 000e 0003 109c 1ff1 20 11010000 BEQ   $1185              27 2d 04 00 06     8987 
1158 2942 000e 0003 109c 1ff1 20 11010000 LSR   <$00               04 00 06 01 06     8990 
115a 2942 000e 0003 109c 1ff1 20 11010001 ROR   <$01               06 01 06 02 06     8996 
115c 2942 000e 0003 109c 1ff1 20 11011000 ROR   <$02               06 02 06 03 dc     9002 
115e 2942 000e 0003 109c 1ff1 20 11010000 ROR   <$03               06 03 dc 00 10     9008 
1160 2942 000e 0003 109c 1ff1 20 11010100 LDD   <$00               dc 00 10 a3 c4     9014 
1162 1ffe 000e 0003 109c 1ff1 20 11010000 CMPD  ,U                 10 a3 c4 25 09     9019 
1165 1ffe 000e 0003 109c 1ff1 20 11011001 BCS   $1170              25 09 22 18 dc     9026 
1170 1ffe 000e 0003 109c 1ff1 20 11011001 LDD   $2,U               ec 42 93 02 ed     9029 
1172 e8c3 000e 0003 109c 1ff1 20 11011001 SUBD  <$02               93 02 ed 42 ec     9035 
1174 c8c3 000e 0003 109c 1ff1 20 11011000 STD   $2,U               ed 42 ec c4 24     9041 
1176 c8c3 000e 0003 109c 1ff1 20 11011000 LDD   ,U                 ec c4 24 03 83     9047 
1178 2942 000e 0003 109c 1ff1 20 11010000 BCC   $117D              24 03 83 00 01     9052 
117d 2942 000e 0003 109c 1ff1 20 11010000 SUBD  <$00               93 00 ed c4 30     9055 
117f 0944 000e 0003 109c 1ff1 20 11010000 STD   ,U                 ed c4 30 1f 26     9061 
1181 0944 000e 0003 109c 1ff1 20 11010000 LEAX  -$1,X              30 1f 26 d3 35     9066 
1183 0944 000d 0003 109c 1ff1 20 11010000 BNE   $1158              26 d3 35 96 fc     9071 
1158 0944 000d 0003 109c 1ff1 20 11010000 LSR   <$00               04 00 06 01 06     9074 
115a 0944 000d 0003 109c 1ff1 20 11010001 ROR   <$01               06 01 06 02 06     9080 
115c 0944 000d 0003 109c 1ff1 20 11011000 ROR   <$02               06 02 06 03 dc     9086 
115e 0944 000d 0003 109c 1ff1 20 11010000 ROR   <$03               06 03 dc 00 10     9092 
1160 0944 000d 0003 109c 1ff1 20 11010100 LDD   <$00               dc 00 10 a3 c4     9098 
1162 0fff 000d 0003 109c 1ff1 20 11010000 CMPD  ,U                 10 a3 c4 25 09     9103 
1165 0fff 000d 0003 109c 1ff1 20 11010000 BCS   $1170              25 09 22 18 dc     9110 
1167 0fff 000d 0003 109c 1ff1 20 11010000 BHI   $1181              22 18 dc 02 10     9113 
1181 0fff 000d 0003 109c 1ff1 20 11010000 LEAX  -$1,X              30 1f 26 d3 35     9116 
1183 0fff 000c 0003 109c 1ff1 20 11010000 BNE   $1158              26 d3 35 96 fc     9121 
1158 0fff 000c 0003 109c 1ff1 20 11010000 LSR   <$00               04 00 06 01 06     9124 
115a 0fff 000c 0003 109c 1ff1 20 11010001 ROR   <$01               06 01 06 02 06     9130 
115c 0fff 000c 0003 109c 1ff1 20 11011001 ROR   <$02               06 02 06 03 dc     9136 
115e 0fff 000c 0003 109c 1ff1 20 11011000 ROR   <$03               06 03 dc 00 10     9142 
1160 0fff 000c 0003 109c 1ff1 20 11010100 LDD   <$00               dc 00 10 a3 c4     9148 
1162 07ff 000c 0003 109c 1ff1 20 11010000 CMPD  ,U                 10 a3 c4 25 09     9153 
1165 07ff 000c 0003 109c 1ff1 20 11011001 BCS   $1170              25 09 22 18 dc     9160 
1170 07ff 000c 0003 109c 1ff1 20 11011001 LDD   $2,U               ec 42 93 02 ed     9163 
1172 c8c3 000c 0003 109c 1ff1 20 11011001 SUBD  <$02               93 02 ed 42 ec     9169 
1174 40c3 000c 0003 109c 1ff1 20 11010000 STD   $2,U               ed 42 ec c4 24     9175 
1176 40c3 000c 0003 109c 1ff1 20 11010000 LDD   ,U                 ec c4 24 03 83     9181 
1178 0944 000c 0003 109c 1ff1 20 11010000 BCC   $117D              24 03 83 00 01     9186 
117d 0944 000c 0003 109c 1ff1 20 11010000 SUBD  <$00               93 00 ed c4 30     9189 
117f 0145 000c 0003 109c 1ff1 20 11010000 STD   ,U                 ed c4 30 1f 26     9195 
1181 0145 000c 0003 109c 1ff1 20 11010000 LEAX  -$1,X              30 1f 26 d3 35     9200 
1183 0145 000b 0003 109c 1ff1 20 11010000 BNE   $1158              26 d3 35 96 fc     9205 
1158 0145 000b 0003 109c 1ff1 20 11010000 LSR   <$00               04 00 06 01 06     9208 
115a 0145 000b 0003 109c 1ff1 20 11010001 ROR   <$01               06 01 06 02 06     9214 
115c 0145 000b 0003 109c 1ff1 20 11011001 ROR   <$02               06 02 06 03 dc     9220 
115e 0145 000b 0003 109c 1ff1 20 11011000 ROR   <$03               06 03 dc 00 10     9226 
1160 0145 000b 0003 109c 1ff1 20 11010100 LDD   <$00               dc 00 10 a3 c4     9232 
1162 03ff 000b 0003 109c 1ff1 20 11010000 CMPD  ,U                 10 a3 c4 25 09     9237 
1165 03ff 000b 0003 109c 1ff1 20 11010000 BCS   $1170              25 09 22 18 dc     9244 
1167 03ff 000b 0003 109c 1ff1 20 11010000 BHI   $1181              22 18 dc 02 10     9247 
1181 03ff 000b 0003 109c 1ff1 20 11010000 LEAX  -$1,X              30 1f 26 d3 35     9250 
1183 03ff 000a 0003 109c 1ff1 20 11010000 BNE   $1158              26 d3 35 96 fc     9255 
1158 03ff 000a 0003 109c 1ff1 20 11010000 LSR   <$00               04 00 06 01 06     9258 
115a 03ff 000a 0003 109c 1ff1 20 11010001 ROR   <$01               06 01 06 02 06     9264 
115c 03ff 000a 0003 109c 1ff1 20 11011001 ROR   <$02               06 02 06 03 dc     9270 
115e 03ff 000a 0003 109c 1ff1 20 11011000 ROR   <$03               06 03 dc 00 10     9276 
1160 03ff 000a 0003 109c 1ff1 20 11010100 LDD   <$00               dc 00 10 a3 c4     9282 
1162 01ff 000a 0003 109c 1ff1 20 11010000 CMPD  ,U                 10 a3 c4 25 09     9287 
1165 01ff 000a 0003 109c 1ff1 20 11010000 BCS   $1170              25 09 22 18 dc     9294 
1167 01ff 000a 0003 109c 1ff1 20 11010000 BHI   $1181              22 18 dc 02 10     9297 
1181 01ff 000a 0003 109c 1ff1 20 11010000 LEAX  -$1,X              30 1f 26 d3 35     9300 
1183 01ff 0009 0003 109c 1ff1 20 11010000 BNE   $1158              26 d3 35 96 fc     9305 
1158 01ff 0009 0003 109c 1ff1 20 11010000 LSR   <$00               04 00 06 01 06     9308 
115a 01ff 0009 0003 109c 1ff1 20 11010101 ROR   <$01               06 01 06 02 06     9314 
115c 01ff 0009 0003 109c 1ff1 20 11011001 ROR   <$02               06 02 06 03 dc     9320 
115e 01ff 0009 0003 109c 1ff1 20 11011000 ROR   <$03               06 03 dc 00 10     9326 
1160 01ff 0009 0003 109c 1ff1 20 11010100 LDD   <$00               dc 00 10 a3 c4     9332 
1162 00ff 0009 0003 109c 1ff1 20 11010000 CMPD  ,U                 10 a3 c4 25 09     9337 
1165 00ff 0009 0003 109c 1ff1 20 11011001 BCS   $1170              25 09 22 18 dc     9344 
1170 00ff 0009 0003 109c 1ff1 20 11011001 LDD   $2,U               ec 42 93 02 ed     9347 
1172 40c3 0009 0003 109c 1ff1 20 11010001 SUBD  <$02               93 02 ed 42 ec     9353 
1174 4fc3 0009 0003 109c 1ff1 20 11010001 STD   $2,U               ed 42 ec c4 24     9359 
1176 4fc3 0009 0003 109c 1ff1 20 11010001 LDD   ,U                 ec c4 24 03 83     9365 
1178 0145 0009 0003 109c 1ff1 20 11010001 BCC   $117D              24 03 83 00 01     9370 
117a 0145 0009 0003 109c 1ff1 20 11010001 SUBD  #$0001             83 00 01 93 00     9373 
117d 0144 0009 0003 109c 1ff1 20 11010000 SUBD  <$00               93 00 ed c4 30     9377 
117f 0045 0009 0003 109c 1ff1 20 11010000 STD   ,U                 ed c4 30 1f 26     9383 
1181 0045 0009 0003 109c 1ff1 20 11010000 LEAX  -$1,X              30 1f 26 d3 35     9388 
1183 0045 0008 0003 109c 1ff1 20 11010000 BNE   $1158              26 d3 35 96 fc     9393 
1158 0045 0008 0003 109c 1ff1 20 11010000 LSR   <$00               04 00 06 01 06     9396 
115a 0045 0008 0003 109c 1ff1 20 11010100 ROR   <$01               06 01 06 02 06     9402 
115c 0045 0008 0003 109c 1ff1 20 11010001 ROR   <$02               06 02 06 03 dc     9408 
115e 0045 0008 0003 109c 1ff1 20 11011001 ROR   <$03               06 03 dc 00 10     9414 
1160 0045 0008 0003 109c 1ff1 20 11011000 LDD   <$00               dc 00 10 a3 c4     9420 
1162 007f 0008 0003 109c 1ff1 20 11010000 CMPD  ,U                 10 a3 c4 25 09     9425 
1165 007f 0008 0003 109c 1ff1 20 11010000 BCS   $1170              25 09 22 18 dc     9432 
1167 007f 0008 0003 109c 1ff1 20 11010000 BHI   $1181              22 18 dc 02 10     9435 
1181 007f 0008 0003 109c 1ff1 20 11010000 LEAX  -$1,X              30 1f 26 d3 35     9438 
1183 007f 0007 0003 109c 1ff1 20 11010000 BNE   $1158              26 d3 35 96 fc     9443 
1158 007f 0007 0003 109c 1ff1 20 11010000 LSR   <$00               04 00 06 01 06     9446 
115a 007f 0007 0003 109c 1ff1 20 11010100 ROR   <$01               06 01 06 02 06     9452 
115c 007f 0007 0003 109c 1ff1 20 11010001 ROR   <$02               06 02 06 03 dc     9458 
115e 007f 0007 0003 109c 1ff1 20 11011000 ROR   <$03               06 03 dc 00 10     9464 
1160 007f 0007 0003 109c 1ff1 20 11010000 LDD   <$00               dc 00 10 a3 c4     9470 
1162 003f 0007 0003 109c 1ff1 20 11010000 CMPD  ,U                 10 a3 c4 25 09     9475 
1165 003f 0007 0003 109c 1ff1 20 11011001 BCS   $1170              25 09 22 18 dc     9482 
1170 003f 0007 0003 109c 1ff1 20 11011001 LDD   $2,U               ec 42 93 02 ed     9485 
1172 4fc3 0007 0003 109c 1ff1 20 11010001 SUBD  <$02               93 02 ed 42 ec     9491 
1174 5383 0007 0003 109c 1ff1 20 11010001 STD   $2,U               ed 42 ec c4 24     9497 
1176 5383 0007 0003 109c 1ff1 20 11010001 LDD   ,U                 ec c4 24 03 83     9503 
1178 0045 0007 0003 109c 1ff1 20 11010001 BCC   $117D              24 03 83 00 01     9508 
117a 0045 0007 0003 109c 1ff1 20 11010001 SUBD  #$0001             83 00 01 93 00     9511 
117d 0044 0007 0003 109c 1ff1 20 11010000 SUBD  <$00               93 00 ed c4 30     9515 
117f 0005 0007 0003 109c 1ff1 20 11010000 STD   ,U                 ed c4 30 1f 26     9521 
1181 0005 0007 0003 109c 1ff1 20 11010000 LEAX  -$1,X              30 1f 26 d3 35     9526 
1183 0005 0006 0003 109c 1ff1 20 11010000 BNE   $1158              26 d3 35 96 fc     9531 
1158 0005 0006 0003 109c 1ff1 20 11010000 LSR   <$00               04 00 06 01 06     9534 
115a 0005 0006 0003 109c 1ff1 20 11010100 ROR   <$01               06 01 06 02 06     9540 
115c 0005 0006 0003 109c 1ff1 20 11010001 ROR   <$02               06 02 06 03 dc     9546 
115e 0005 0006 0003 109c 1ff1 20 11011000 ROR   <$03               06 03 dc 00 10     9552 
1160 0005 0006 0003 109c 1ff1 20 11010000 LDD   <$00               dc 00 10 a3 c4     9558 
1162 001f 0006 0003 109c 1ff1 20 11010000 CMPD  ,U                 10 a3 c4 25 09     9563 
1165 001f 0006 0003 109c 1ff1 20 11010000 BCS   $1170              25 09 22 18 dc     9570 
1167 001f 0006 0003 109c 1ff1 20 11010000 BHI   $1181              22 18 dc 02 10     9573 
1181 001f 0006 0003 109c 1ff1 20 11010000 LEAX  -$1,X              30 1f 26 d3 35     9576 
1183 001f 0005 0003 109c 1ff1 20 11010000 BNE   $1158              26 d3 35 96 fc     9581 
1158 001f 0005 0003 109c 1ff1 20 11010000 LSR   <$00               04 00 06 01 06     9584 
115a 001f 0005 0003 109c 1ff1 20 11010100 ROR   <$01               06 01 06 02 06     9590 
115c 001f 0005 0003 109c 1ff1 20 11010001 ROR   <$02               06 02 06 03 dc     9596 
115e 001f 0005 0003 109c 1ff1 20 11011000 ROR   <$03               06 03 dc 00 10     9602 
1160 001f 0005 0003 109c 1ff1 20 11010000 LDD   <$00               dc 00 10 a3 c4     9608 
1162 000f 0005 0003 109c 1ff1 20 11010000 CMPD  ,U                 10 a3 c4 25 09     9613 
1165 000f 0005 0003 109c 1ff1 20 11010000 BCS   $1170              25 09 22 18 dc     9620 
1167 000f 0005 0003 109c 1ff1 20 11010000 BHI   $1181              22 18 dc 02 10     9623 
1181 000f 0005 0003 109c 1ff1 20 11010000 LEAX  -$1,X              30 1f 26 d3 35     9626 
1183 000f 0004 0003 109c 1ff1 20 11010000 BNE   $1158              26 d3 35 96 fc     9631 
1158 000f 0004 0003 109c 1ff1 20 11010000 LSR   <$00               04 00 06 01 06     9634 
115a 000f 0004 0003 109c 1ff1 20 11010100 ROR   <$01               06 01 06 02 06     9640 
115c 000f 0004 0003 109c 1ff1 20 11010001 ROR   <$02               06 02 06 03 dc     9646 
115e 000f 0004 0003 109c 1ff1 20 11011001 ROR   <$03               06 03 dc 00 10     9652 
1160 000f 0004 0003 109c 1ff1 20 11011000 LDD   <$00               dc 00 10 a3 c4     9658 
1162 0007 0004 0003 109c 1ff1 20 11010000 CMPD  ,U                 10 a3 c4 25 09     9663 
1165 0007 0004 0003 109c 1ff1 20 11010000 BCS   $1170              25 09 22 18 dc     9670 
1167 0007 0004 0003 109c 1ff1 20 11010000 BHI   $1181              22 18 dc 02 10     9673 
1181 0007 0004 0003 109c 1ff1 20 11010000 LEAX  -$1,X              30 1f 26 d3 35     9676 
1183 0007 0003 0003 109c 1ff1 20 11010000 BNE   $1158              26 d3 35 96 fc     9681 
1158 0007 0003 0003 109c 1ff1 20 11010000 LSR   <$00               04 00 06 01 06     9684 
115a 0007 0003 0003 109c 1ff1 20 11010100 ROR   <$01               06 01 06 02 06     9690 
115c 0007 0003 0003 109c 1ff1 20 11010001 ROR   <$02               06 02 06 03 dc     9696 
115e 0007 0003 0003 109c 1ff1 20 11011001 ROR   <$03               06 03 dc 00 10     9702 
1160 0007 0003 0003 109c 1ff1 20 11011000 LDD   <$00               dc 00 10 a3 c4     9708 
1162 0003 0003 0003 109c 1ff1 20 11010000 CMPD  ,U                 10 a3 c4 25 09     9713 
1165 0003 0003 0003 109c 1ff1 20 11011001 BCS   $1170              25 09 22 18 dc     9720 
1170 0003 0003 0003 109c 1ff1 20 11011001 LDD   $2,U               ec 42 93 02 ed     9723 
1172 5383 0003 0003 109c 1ff1 20 11010001 SUBD  <$02               93 02 ed 42 ec     9729 
1174 53bf 0003 0003 109c 1ff1 20 11010001 STD   $2,U               ed 42 ec c4 24     9735 
1176 53bf 0003 0003 109c 1ff1 20 11010001 LDD   ,U                 ec c4 24 03 83     9741 
1178 0005 0003 0003 109c 1ff1 20 11010001 BCC   $117D              24 03 83 00 01     9746 
117a 0005 0003 0003 109c 1ff1 20 11010001 SUBD  #$0001             83 00 01 93 00     9749 
117d 0004 0003 0003 109c 1ff1 20 11010000 SUBD  <$00               93 00 ed c4 30     9753 
117f 0001 0003 0003 109c 1ff1 20 11010000 STD   ,U                 ed c4 30 1f 26     9759 
1181 0001 0003 0003 109c 1ff1 20 11010000 LEAX  -$1,X              30 1f 26 d3 35     9764 
1183 0001 0002 0003 109c 1ff1 20 11010000 BNE   $1158              26 d3 35 96 fc     9769 
1158 0001 0002 0003 109c 1ff1 20 11010000 LSR   <$00               04 00 06 01 06     9772 
115a 0001 0002 0003 109c 1ff1 20 11010100 ROR   <$01               06 01 06 02 06     9778 
115c 0001 0002 0003 109c 1ff1 20 11010001 ROR   <$02               06 02 06 03 dc     9784 
115e 0001 0002 0003 109c 1ff1 20 11011001 ROR   <$03               06 03 dc 00 10     9790 
1160 0001 0002 0003 109c 1ff1 20 11011000 LDD   <$00               dc 00 10 a3 c4     9796 
1162 0001 0002 0003 109c 1ff1 20 11010000 CMPD  ,U                 10 a3 c4 25 09     9801 
1165 0001 0002 0003 109c 1ff1 20 11010100 BCS   $1170              25 09 22 18 dc     9808 
1167 0001 0002 0003 109c 1ff1 20 11010100 BHI   $1181              22 18 dc 02 10     9811 
1169 0001 0002 0003 109c 1ff1 20 11010100 LDD   <$02               dc 02 10 a3 42     9814 
116b ffe2 0002 0003 109c 1ff1 20 11011000 CMPD  $2,U               10 a3 42 22 11     9819 
116e ffe2 0002 0003 109c 1ff1 20 11011000 BHI   $1181              22 11 ec 42 93     9827 
1181 ffe2 0002 0003 109c 1ff1 20 11011000 LEAX  -$1,X              30 1f 26 d3 35     9830 
1183 ffe2 0001 0003 109c 1ff1 20 11011000 BNE   $1158              26 d3 35 96 fc     9835 
1158 ffe2 0001 0003 109c 1ff1 20 11011000 LSR   <$00               04 00 06 01 06     9838 
115a ffe2 0001 0003 109c 1ff1 20 11010100 ROR   <$01               06 01 06 02 06     9844 
115c ffe2 0001 0003 109c 1ff1 20 11010101 ROR   <$02               06 02 06 03 dc     9850 
115e ffe2 0001 0003 109c 1ff1 20 11011001 ROR   <$03               06 03 dc 00 10     9856 
1160 ffe2 0001 0003 109c 1ff1 20 11011000 LDD   <$00               dc 00 10 a3 c4     9862 
1162 0000 0001 0003 109c 1ff1 20 11010100 CMPD  ,U                 10 a3 c4 25 09     9867 
1165 0000 0001 0003 109c 1ff1 20 11011001 BCS   $1170              25 09 22 18 dc     9874 
1170 0000 0001 0003 109c 1ff1 20 11011001 LDD   $2,U               ec 42 93 02 ed     9877 
1172 53bf 0001 0003 109c 1ff1 20 11010001 SUBD  <$02               93 02 ed 42 ec     9883 
1174 53ce 0001 0003 109c 1ff1 20 11010001 STD   $2,U               ed 42 ec c4 24     9889 
1176 53ce 0001 0003 109c 1ff1 20 11010001 LDD   ,U                 ec c4 24 03 83     9895 
1178 0001 0001 0003 109c 1ff1 20 11010001 BCC   $117D              24 03 83 00 01     9900 
117a 0001 0001 0003 109c 1ff1 20 11010001 SUBD  #$0001             83 00 01 93 00     9903 
117d 0000 0001 0003 109c 1ff1 20 11010100 SUBD  <$00               93 00 ed c4 30     9907 
117f 0000 0001 0003 109c 1ff1 20 11010100 STD   ,U                 ed c4 30 1f 26     9913 
1181 0000 0001 0003 109c 1ff1 20 11010100 LEAX  -$1,X              30 1f 26 d3 35     9918 
1183 0000 0000 0003 109c 1ff1 20 11010100 BNE   $1158              26 d3 35 96 fc     9923 
1185 0000 0000 0003 109c 1ff1 20 11010100 PULS  A,B,X,PC           35 96 fc 10 a0     9926 
112a 0024 fff1 0003 109c 1ff7 20 11010100 PULS  X,U,PC             35 d0 34 16 9f     9937 
118e 0024 1098 0003 1099 1ffd 20 11010100 LDD   $109E              fc 10 9e fd 10     9948 
1191 53ce 1098 0003 1099 1ffd 20 11010000 STD   $1098              fd 10 98 39 cd     9954 
1194 53ce 1098 0003 1099 1ffd 20 11010000 RTS                      39 cd cd cd cd     9960 
1035 53ce 1098 0003 1099 1fff 20 11010000 LDX   #$1086             8e 10 86 a7 84     9965 
1038 53ce 1086 0003 1099 1fff 20 11010000 STA   ,X                 a7 84 e8 01 24     9968 
103a 53ce 1086 0003 1099 1fff 20 11010000 EORB  $1,X               e8 01 24 01 19     9972 
103c 5387 1086 0003 1099 1fff 20 11011000 BCC   $103F              24 01 19 25 01     9977 
103f 5387 1086 0003 1099 1fff 20 11011000 BCS   $1042              25 01 4c 27 01     9980 
1041 5387 1086 0003 1099 1fff 20 11011000 INCA                     4c 27 01 4a 2c     9983 
1042 5487 1086 0003 1099 1fff 20 11010000 BEQ   $1045              27 01 4a 2c 03     9985 
1044 5487 1086 0003 1099 1fff 20 11010000 DECA                     4a 2c 03 bd 10     9988 
1045 5387 1086 0003 1099 1fff 20 11010000 BGE   $104A              2c 03 bd 10 af     9990 
104a 5387 1086 0003 1099 1fff 20 11010000 BGT   $104E              2e 02 ab 84 22     9993 
104e 5387 1086 0003 1099 1fff 20 11010000 BHI   $1052              22 02 a9 84 24     9996 
1052 5387 1086 0003 1099 1fff 20 11010000 BCC   $1055              24 01 3d 2f 02     9999 
1055 5387 1086 0003 1099 1fff 20 11010000 BLE   $1059              2f 02 a0 84 25    10002 
1057 5387 1086 0003 1099 1fff 20 11010000 SUBA  ,X                 a0 84 25 02 a2    10005 
1059 0087 1086 0003 1099 1fff 20 11010100 BCS   $105D              25 02 a2 84 23    10009 
105b 0087 1086 0003 1099 1fff 20 11010100 SBCA  ,X                 a2 84 23 01 48    10012 
105d ad87 1086 0003 1099 1fff 20 11011001 BLS   $1060              23 01 48 2d 01    10016 
1060 ad87 1086 0003 1099 1fff 20 11011001 BLT   $1063              2d 01 49 2b 01    10019 
1063 ad87 1086 0003 1099 1fff 20 11011001 BMI   $1066              2b 01 44 26 01    10022 
1066 ad87 1086 0003 1099 1fff 20 11011001 BNE   $1069              26 01 46 2a 02    10025 
1069 ad87 1086 0003 1099 1fff 20 11011001 BPL   $106D              2a 02 84 0f 28    10028 
106b ad87 1086 0003 1099 1fff 20 11011001 ANDA  #$0F               84 0f 28 02 8a    10031 
106d 0d87 1086 0003 1099 1fff 20 11010001 BVC   $1071              28 02 8a f0 29    10033 
1071 0d87 1086 0003 1099 1fff 20 11010001 BVS   $1075              29 02 88 aa a8    10036 
1073 0d87 1086 0003 1099 1fff 20 11010001 EORA  #$AA               88 aa a8 84 31    10039 
1075 a787 1086 0003 1099 1fff 20 11011001 EORA  ,X                 a8 84 31 3f 26    10041 
1077 f487 1086 0003 1099 1fff 20 11011001 LEAY  -$1,Y              31 3f 26 9f bd    10045 
1079 f487 1086 0002 1099 1fff 20 11011001 BNE   $101A              26 9f bd 11 87    10050 
101a f487 1086 0002 1099 1fff 20 11011001 LDU   #$1086             ce 10 86 8e 00    10053 
101d f487 1086 0002 1086 1fff 20 11010001 LDX   #$0012             8e 00 12 bd 10    10056 
1020 f487 0012 0002 1086 1fff 20 11010001 JSR   $10D4              bd 10 d4 8e 10    10059 
10d4 f487 0012 0002 1086 1ffd 20 11010001 PSHS  U,X,B,A            34 56 4f e6 c0    10067 
10d6 f487 0012 0002 1086 1ff7 20 11010001 CLRA                     4f e6 c0 f3 10    10078 
10d7 0087 0012 0002 1086 1ff7 20 11010100 LDB   ,U+                e6 c0 f3 10 9a    10080 
10d9 0053 0012 0002 1087 1ff7 20 11010000 ADDD  $109A              f3 10 9a fd 10    10086 
10dc 92db 0012 0002 1087 1ff7 20 11011000 STD   $109A              fd 10 9a 24 09    10093 
10df 92db 0012 0002 1087 1ff7 20 11011000 BCC   $10EA              24 09 fc 10 98    10099 
10ea 92db 0012 0002 1087 1ff7 20 11011000 LDD   $109A              fc 10 9a f3 10    10102 
10ed 92db 0012 0002 1087 1ff7 20 11011000 ADDD  $109E              f3 10 9e fd 10    10108 
10f0 e6a9 0012 0002 1087 1ff7 20 11011000 STD   $109E              fd 10 9e fc 10    10115 
10f3 e6a9 0012 0002 1087 1ff7 20 11011000 LDD   $1098              fc 10 98 24 03    10121 
10f6 53ce 0012 0002 1087 1ff7 20 11010000 BCC   $10FB              24 03 c3 00 01    10127 
10fb 53ce 0012 0002 1087 1ff7 20 11010000 ADDD  $109C              f3 10 9c fd 10    10130 
10fe 53ce 0012 0002 1087 1ff7 20 11010000 STD   $109C              fd 10 9c fc 10    10137 
1101 53ce 0012 0002 1087 1ff7 20 11010000 LDD   $10A0              fc 10 a0 c3 00    10143 
1104 0024 0012 0002 1087 1ff7 20 11010000 ADDD  #$0001             c3 00 01 10 83    10149 
1107 0025 0012 0002 1087 1ff7 20 11010000 CMPD  #$15AE             10 83 15 ae 26    10153 
110b 0025 0012 0002 1087 1ff7 20 11011001 BNE   $1112              26 05 8d 0c cc    10158 
1112 0025 0012 0002 1087 1ff7 20 11011001 STD   $10A0              fd 10 a0 30 1f    10161 
1115 0025 0012 0002 1087 1ff7 20 11010001 LEAX  -$1,X              30 1f 26 bd 35    10167 
1117 0025 0011 0002 1087 1ff7 20 11010001 BNE   $10D6              26 bd 35 d6 34    10172 
10d6 0025 0011 0002 1087 1ff7 20 11010001 CLRA                     4f e6 c0 f3 10    10175 
10d7 0025 0011 0002 1087 1ff7 20 11010100 LDB   ,U+                e6 c0 f3 10 9a    10177 
10d9 0049 0011 0002 1088 1ff7 20 11010000 ADDD  $109A              f3 10 9a fd 10    10183 
10dc 9324 0011 0002 1088 1ff7 20 11011000 STD   $109A              fd 10 9a 24 09    10190 
10df 9324 0011 0002 1088 1ff7 20 11011000 BCC   $10EA              24 09 fc 10 98    10196 
10ea 9324 0011 0002 1088 1ff7 20 11011000 LDD   $109A              fc 10 9a f3 10    10199 
10ed 9324 0011 0002 1088 1ff7 20 11011000 ADDD  $109E              f3 10 9e fd 10    10205 
10f0 79cd 0011 0002 1088 1ff7 20 11010011 STD   $109E              fd 10 9e fc 10    10212 
10f3 79cd 0011 0002 1088 1ff7 20 11010001 LDD   $1098              fc 10 98 24 03    10218 
10f6 53ce 0011 0002 1088 1ff7 20 11010001 BCC   $10FB              24 03 c3 00 01    10224 
10f8 53ce 0011 0002 1088 1ff7 20 11010001 ADDD  #$0001             c3 00 01 f3 10    10227 
10fb 53cf 0011 0002 1088 1ff7 20 11010000 ADDD  $109C              f3 10 9c fd 10    10231 
10fe a79d 0011 0002 1088 1ff7 20 11011010 STD   $109C              fd 10 9c fc 10    10238 
1101 a79d 0011 0002 1088 1ff7 20 11011000 LDD   $10A0              fc 10 a0 c3 00    10244 
1104 0025 0011 0002 1088 1ff7 20 11010000 ADDD  #$0001             c3 00 01 10 83    10250 
1107 0026 0011 0002 1088 1ff7 20 11010000 CMPD  #$15AE             10 83 15 ae 26    10254 
110b 0026 0011 0002 1088 1ff7 20 11011001 BNE   $1112              26 05 8d 0c cc    10259 
1112 0026 0011 0002 1088 1ff7 20 11011001 STD   $10A0              fd 10 a0 30 1f    10262 
1115 0026 0011 0002 1088 1ff7 20 11010001 LEAX  -$1,X              30 1f 26 bd 35    10268 
1117 0026 0010 0002 1088 1ff7 20 11010001 BNE   $10D6              26 bd 35 d6 34    10273 
10d6 0026 0010 0002 1088 1ff7 20 11010001 CLRA                     4f e6 c0 f3 10    10276 
10d7 0026 0010 0002 1088 1ff7 20 11010100 LDB   ,U+                e6 c0 f3 10 9a    10278 
10d9 0049 0010 0002 1089 1ff7 20 11010000 ADDD  $109A              f3 10 9a fd 10    10284 
10dc 936d 0010 0002 1089 1ff7 20 11011000 STD   $109A              fd 10 9a 24 09    10291 
10df 936d 0010 0002 1089 1ff7 20 11011000 BCC   $10EA              24 09 fc 10 98    10297 
10ea 936d 0010 0002 1089 1ff7 20 11011000 LDD   $109A              fc 10 9a f3 10    10300 
10ed 936d 0010 0002 1089 1ff7 20 11011000 ADDD  $109E              f3 10 9e fd 10    10306 
10f0 0d3a 0010 0002 1089 1ff7 20 11010001 STD   $109E              fd 10 9e fc 10    10313 
10f3 0d3a 0010 0002 1089 1ff7 20 11010001 LDD   $1098              fc 10 98 24 03    10319 
10f6 53ce 0010 0002 1089 1ff7 20 11010001 BCC   $10FB              24 03 c3 00 01    10325 
10f8 53ce 0010 0002 1089 1ff7 20 11010001 ADDD  #$0001             c3 00 01 f3 10    10328 
10fb 53cf 0010 0002 1089 1ff7 20 11010000 ADDD  $109C              f3 10 9c fd 10    10332 
10fe fb6c 0010 0002 1089 1ff7 20 11011000 STD   $109C              fd 10 9c fc 10    10339 
1101 fb6c 0010 0002 1089 1ff7 20 11011000 LDD   $10A0              fc 10 a0 c3 00    10345 
1104 0026 0010 0002 1089 1ff7 20 11010000 ADDD  #$0001             c3 00 01 10 83    10351 
1107 0027 0010 0002 1089 1ff7 20 11010000 CMPD  #$15AE             10 83 15 ae 26    10355 
110b 0027 0010 0002 1089 1ff7 20 11011001 BNE   $1112              26 05 8d 0c cc    10360 
1112 0027 0010 0002 1089 1ff7 20 11011001 STD   $10A0              fd 10 a0 30 1f    10363 
1115 0027 0010 0002 1089 1ff7 20 11010001 LEAX  -$1,X              30 1f 26 bd 35    10369 
1117 0027 000f 0002 1089 1ff7 20 11010001 BNE   $10D6              26 bd 35 d6 34    10374 
10d6 0027 000f 0002 1089 1ff7 20 11010001 CLRA                     4f e6 c0 f3 10    10377 
10d7 0027 000f 0002 1089 1ff7 20 11010100 LDB   ,U+                e6 c0 f3 10 9a    10379 
10d9 0049 000f 0002 108a 1ff7 20 11010000 ADDD  $109A              f3 10 9a fd 10    10385 
10dc 93b6 000f 0002 108a 1ff7 20 11011000 STD   $109A              fd 10 9a 24 09    10392 
10df 93b6 000f 0002 108a 1ff7 20 11011000 BCC   $10EA              24 09 fc 10 98    10398 
10ea 93b6 000f 0002 108a 1ff7 20 11011000 LDD   $109A              fc 10 9a f3 10    10401 
10ed 93b6 000f 0002 108a 1ff7 20 11011000 ADDD  $109E              f3 10 9e fd 10    10407 
10f0 a0f0 000f 0002 108a 1ff7 20 11011000 STD   $109E              fd 10 9e fc 10    10414 
10f3 a0f0 000f 0002 108a 1ff7 20 11011000 LDD   $1098              fc 10 98 24 03    10420 
10f6 53ce 000f 0002 108a 1ff7 20 11010000 BCC   $10FB              24 03 c3 00 01    10426 
10fb 53ce 000f 0002 108a 1ff7 20 11010000 ADDD  $109C              f3 10 9c fd 10    10429 
10fe 4f3a 000f 0002 108a 1ff7 20 11010001 STD   $109C              fd 10 9c fc 10    10436 
1101 4f3a 000f 0002 108a 1ff7 20 11010001 LDD   $10A0              fc 10 a0 c3 00    10442 
1104 0027 000f 0002 108a 1ff7 20 11010001 ADDD  #$0001             c3 00 01 10 83    10448 
1107 0028 000f 0002 108a 1ff7 20 11010000 CMPD  #$15AE             10 83 15 ae 26    10452 
110b 0028 000f 0002 108a 1ff7 20 11011001 BNE   $1112              26 05 8d 0c cc    10457 
1112 0028 000f 0002 108a 1ff7 20 11011001 STD   $10A0              fd 10 a0 30 1f    10460 
1115 0028 000f 0002 108a 1ff7 20 11010001 LEAX  -$1,X              30 1f 26 bd 35    10466 
1117 0028 000e 0002 108a 1ff7 20 11010001 BNE   $10D6              26 bd 35 d6 34    10471 
10d6 0028 000e 0002 108a 1ff7 20 11010001 CLRA                     4f e6 c0 f3 10    10474 
10d7 0028 000e 0002 108a 1ff7 20 11010100 LDB   ,U+                e6 c0 f3 10 9a    10476 
10d9 0049 000e 0002 108b 1ff7 20 11010000 ADDD  $109A              f3 10 9a fd 10    10482 
10dc 93ff 000e 0002 108b 1ff7 20 11011000 STD   $109A              fd 10 9a 24 09    10489 
10df 93ff 000e 0002 108b 1ff7 20 11011000 BCC   $10EA              24 09 fc 10 98    10495 
10ea 93ff 000e 0002 108b 1ff7 20 11011000 LDD   $109A              fc 10 9a f3 10    10498 
10ed 93ff 000e 0002 108b 1ff7 20 11011000 ADDD  $109E              f3 10 9e fd 10    10504 
10f0 34ef 000e 0002 108b 1ff7 20 11010011 STD   $109E              fd 10 9e fc 10    10511 
10f3 34ef 000e 0002 108b 1ff7 20 11010001 LDD   $1098              fc 10 98 24 03    10517 
10f6 53ce 000e 0002 108b 1ff7 20 11010001 BCC   $10FB              24 03 c3 00 01    10523 
10f8 53ce 000e 0002 108b 1ff7 20 11010001 ADDD  #$0001             c3 00 01 f3 10    10526 
10fb 53cf 000e 0002 108b 1ff7 20 11010000 ADDD  $109C              f3 10 9c fd 10    10530 
10fe a309 000e 0002 108b 1ff7 20 11011010 STD   $109C              fd 10 9c fc 10    10537 
1101 a309 000e 0002 108b 1ff7 20 11011000 LDD   $10A0              fc 10 a0 c3 00    10543 
1104 0028 000e 0002 108b 1ff7 20 11010000 ADDD  #$0001             c3 00 01 10 83    10549 
1107 0029 000e 0002 108b 1ff7 20 11010000 CMPD  #$15AE             10 83 15 ae 26    10553 
110b 0029 000e 0002 108b 1ff7 20 11011001 BNE   $1112              26 05 8d 0c cc    10558 
1112 0029 000e 0002 108b 1ff7 20 11011001 STD   $10A0              fd 10 a0 30 1f    10561 
1115 0029 000e 0002 108b 1ff7 20 11010001 LEAX  -$1,X              30 1f 26 bd 35    10567 
1117 0029 000d 0002 108b 1ff7 20 11010001 BNE   $10D6              26 bd 35 d6 34    10572 
10d6 0029 000d 0002 108b 1ff7 20 11010001 CLRA                     4f e6 c0 f3 10    10575 
10d7 0029 000d 0002 108b 1ff7 20 11010100 LDB   ,U+                e6 c0 f3 10 9a    10577 
10d9 0049 000d 0002 108c 1ff7 20 11010000 ADDD  $109A              f3 10 9a fd 10    10583 
10dc 9448 000d 0002 108c 1ff7 20 11011000 STD   $109A              fd 10 9a 24 09    10590 
10df 9448 000d 0002 108c 1ff7 20 11011000 BCC   $10EA              24 09 fc 10 98    10596 
10ea 9448 000d 0002 108c 1ff7 20 11011000 LDD   $109A              fc 10 9a f3 10    10599 
10ed 9448 000d 0002 108c 1ff7 20 11011000 ADDD  $109E              f3 10 9e fd 10    10605 
10f0 c937 000d 0002 108c 1ff7 20 11011000 STD   $109E              fd 10 9e fc 10    10612 
10f3 c937 000d 0002 108c 1ff7 20 11011000 LDD   $1098              fc 10 98 24 03    10618 
10f6 53ce 000d 0002 108c 1ff7 20 11010000 BCC   $10FB              24 03 c3 00 01    10624 
10fb 53ce 000d 0002 108c 1ff7 20 11010000 ADDD  $109C              f3 10 9c fd 10    10627 
10fe f6d7 000d 0002 108c 1ff7 20 11011000 STD   $109C              fd 10 9c fc 10    10634 
1101 f6d7 000d 0002 108c 1ff7 20 11011000 LDD   $10A0              fc 10 a0 c3 00    10640 
1104 0029 000d 0002 108c 1ff7 20 11010000 ADDD  #$0001             c3 00 01 10 83    10646 
1107 002a 000d 0002 108c 1ff7 20 11010000 CMPD  #$15AE             10 83 15 ae 26    10650 
110b 002a 000d 0002 108c 1ff7 20 11011001 BNE   $1112              26 05 8d 0c cc    10655 
1112 002a 000d 0002 108c 1ff7 20 11011001 STD   $10A0              fd 10 a0 30 1f    10658 
1115 002a 000d 0002 108c 1ff7 20 11010001 LEAX  -$1,X              30 1f 26 bd 35    10664 
1117 002a 000c 0002 108c 1ff7 20 11010001 BNE   $10D6              26 bd 35 d6 34    10669 
10d6 002a 000c 0002 108c 1ff7 20 11010001 CLRA                     4f e6 c0 f3 10    10672 
10d7 002a 000c 0002 108c 1ff7 20 11010100 LDB   ,U+                e6 c0 f3 10 9a    10674 
10d9 0049 000c 0002 108d 1ff7 20 11010000 ADDD  $109A              f3 10 9a fd 10    10680 
10dc 9491 000c 0002 108d 1ff7 20 11011000 STD   $109A              fd 10 9a 24 09    10687 
10df 9491 000c 0002 108d 1ff7 20 11011000 BCC   $10EA              24 09 fc 10 98    10693 
10ea 9491 000c 0002 108d 1ff7 20 11011000 LDD   $109A              fc 10 9a f3 10    10696 
10ed 9491 000c 0002 108d 1ff7 20 11011000 ADDD  $109E              f3 10 9e fd 10    10702 
10f0 5dc8 000c 0002 108d 1ff7 20 11010011 STD   $109E              fd 10 9e fc 10    10709 
10f3 5dc8 000c 0002 108d 1ff7 20 11010001 LDD   $1098              fc 10 98 24 03    10715 
10f6 53ce 000c 0002 108d 1ff7 20 11010001 BCC   $10FB              24 03 c3 00 01    10721 
10f8 53ce 000c 0002 108d 1ff7 20 11010001 ADDD  #$0001             c3 00 01 f3 10    10724 
10fb 53cf 000c 0002 108d 1ff7 20 11010000 ADDD  $109C              f3 10 9c fd 10    10728 
10fe 4aa6 000c 0002 108d 1ff7 20 11010001 STD   $109C              fd 10 9c fc 10    10735 
1101 4aa6 000c 0002 108d 1ff7 20 11010001 LDD   $10A0              fc 10 a0 c3 00    10741 
1104 002a 000c 0002 108d 1ff7 20 11010001 ADDD  #$0001             c3 00 01 10 83    10747 
1107 002b 000c 0002 108d 1ff7 20 11010000 CMPD  #$15AE             10 83 15 ae 26    10751 
110b 002b 000c 0002 108d 1ff7 20 11011001 BNE   $1112              26 05 8d 0c cc    10756 
1112 002b 000c 0002 108d 1ff7 20 11011001 STD   $10A0              fd 10 a0 30 1f    10759 
1115 002b 000c 0002 108d 1ff7 20 11010001 LEAX  -$1,X              30 1f 26 bd 35    10765 
1117 002b 000b 0002 108d 1ff7 20 11010001 BNE   $10D6              26 bd 35 d6 34    10770 
10d6 002b 000b 0002 108d 1ff7 20 11010001 CLRA                     4f e6 c0 f3 10    10773 
10d7 002b 000b 0002 108d 1ff7 20 11010100 LDB   ,U+                e6 c0 f3 10 9a    10775 
10d9 0049 000b 0002 108e 1ff7 20 11010000 ADDD  $109A              f3 10 9a fd 10    10781 
10dc 94da 000b 0002 108e 1ff7 20 11011000 STD   $109A              fd 10 9a 24 09    10788 
10df 94da 000b 0002 108e 1ff7 20 11011000 BCC   $10EA              24 09 fc 10 98    10794 
10ea 94da 000b 0002 108e 1ff7 20 11011000 LDD   $109A              fc 10 9a f3 10    10797 
10ed 94da 000b 0002 108e 1ff7 20 11011000 ADDD  $109E              f3 10 9e fd 10    10803 
10f0 f2a2 000b 0002 108e 1ff7 20 11011000 STD   $109E              fd 10 9e fc 10    10810 
10f3 f2a2 000b 0002 108e 1ff7 20 11011000 LDD   $1098              fc 10 98 24 03    10816 
10f6 53ce 000b 0002 108e 1ff7 20 11010000 BCC   $10FB              24 03 c3 00 01    10822 
10fb 53ce 000b 0002 108e 1ff7 20 11010000 ADDD  $109C              f3 10 9c fd 10    10825 
10fe 9e74 000b 0002 108e 1ff7 20 11011010 STD   $109C              fd 10 9c fc 10    10832 
1101 9e74 000b 0002 108e 1ff7 20 11011000 LDD   $10A0              fc 10 a0 c3 00    10838 
1104 002b 000b 0002 108e 1ff7 20 11010000 ADDD  #$0001             c3 00 01 10 83    10844 
1107 002c 000b 0002 108e 1ff7 20 11010000 CMPD  #$15AE             10 83 15 ae 26    10848 
110b 002c 000b 0002 108e 1ff7 20 11011001 BNE   $1112              26 05 8d 0c cc    10853 
1112 002c 000b 0002 108e 1ff7 20 11011001 STD   $10A0              fd 10 a0 30 1f    10856 
1115 002c 000b 0002 108e 1ff7 20 11010001 LEAX  -$1,X              30 1f 26 bd 35    10862 
1117 002c 000a 0002 108e 1ff7 20 11010001 BNE   $10D6              26 bd 35 d6 34    10867 
10d6 002c 000a 0002 108e 1ff7 20 11010001 CLRA                     4f e6 c0 f3 10    10870 
10d7 002c 000a 0002 108e 1ff7 20 11010100 LDB   ,U+                e6 c0 f3 10 9a    10872 
10d9 0049 000a 0002 108f 1ff7 20 11010000 ADDD  $109A              f3 10 9a fd 10    10878 
10dc 9523 000a 0002 108f 1ff7 20 11011000 STD   $109A              fd 10 9a 24 09    10885 
10df 9523 000a 0002 108f 1ff7 20 11011000 BCC   $10EA              24 09 fc 10 98    10891 
10ea 9523 000a 0002 108f 1ff7 20 11011000 LDD   $109A              fc 10 9a f3 10    10894 
10ed 9523 000a 0002 108f 1ff7 20 11011000 ADDD  $109E              f3 10 9e fd 10    10900 
10f0 87c5 000a 0002 108f 1ff7 20 11011001 STD   $109E              fd 10 9e fc 10    10907 
10f3 87c5 000a 0002 108f 1ff7 20 11011001 LDD   $1098              fc 10 98 24 03    10913 
10f6 53ce 000a 0002 108f 1ff7 20 11010001 BCC   $10FB              24 03 c3 00 01    10919 
10f8 53ce 000a 0002 108f 1ff7 20 11010001 ADDD  #$0001             c3 00 01 f3 10    10922 
10fb 53cf 000a 0002 108f 1ff7 20 11010000 ADDD  $109C              f3 10 9c fd 10    10926 
10fe f243 000a 0002 108f 1ff7 20 11011000 STD   $109C              fd 10 9c fc 10    10933 
1101 f243 000a 0002 108f 1ff7 20 11011000 LDD   $10A0              fc 10 a0 c3 00    10939 
1104 002c 000a 0002 108f 1ff7 20 11010000 ADDD  #$0001             c3 00 01 10 83    10945 
1107 002d 000a 0002 108f 1ff7 20 11010000 CMPD  #$15AE             10 83 15 ae 26    10949 
110b 002d 000a 0002 108f 1ff7 20 11011001 BNE   $1112              26 05 8d 0c cc    10954 
1112 002d 000a 0002 108f 1ff7 20 11011001 STD   $10A0              fd 10 a0 30 1f    10957 
1115 002d 000a 0002 108f 1ff7 20 11010001 LEAX  -$1,X              30 1f 26 bd 35    10963 
1117 002d 0009 0002 108f 1ff7 20 11010001 BNE   $10D6              26 bd 35 d6 34    10968 
10d6 002d 0009 0002 108f 1ff7 20 11010001 CLRA                     4f e6 c0 f3 10    10971 
10d7 002d 0009 0002 108f 1ff7 20 11010100 LDB   ,U+                e6 c0 f3 10 9a    10973 
10d9 0049 0009 0002 1090 1ff7 20 11010000 ADDD  $109A              f3 10 9a fd 10    10979 
10dc 956c 0009 0002 1090 1ff7 20 11011000 STD   $109A              fd 10 9a 24 09    10986 
10df 956c 0009 0002 1090 1ff7 20 11011000 BCC   $10EA              24 09 fc 10 98    10992 
10ea 956c 0009 0002 1090 1ff7 20 11011000 LDD   $109A              fc 10 9a f3 10    10995 
10ed 956c 0009 0002 1090 1ff7 20 11011000 ADDD  $109E              f3 10 9e fd 10    11001 
10f0 1d31 0009 0002 1090 1ff7 20 11010011 STD   $109E              fd 10 9e fc 10    11008 
10f3 1d31 0009 0002 1090 1ff7 20 11010001 LDD   $1098              fc 10 98 24 03    11014 
10f6 53ce 0009 0002 1090 1ff7 20 11010001 BCC   $10FB              24 03 c3 00 01    11020 
10f8 53ce 0009 0002 1090 1ff7 20 11010001 ADDD  #$0001             c3 00 01 f3 10    11023 
10fb 53cf 0009 0002 1090 1ff7 20 11010000 ADDD  $109C              f3 10 9c fd 10    11027 
10fe 4612 0009 0002 1090 1ff7 20 11010001 STD   $109C              fd 10 9c fc 10    11034 
1101 4612 0009 0002 1090 1ff7 20 11010001 LDD   $10A0              fc 10 a0 c3 00    11040 
1104 002d 0009 0002 1090 1ff7 20 11010001 ADDD  #$0001             c3 00 01 10 83    11046 
1107 002e 0009 0002 1090 1ff7 20 11010000 CMPD  #$15AE             10 83 15 ae 26    11050 
110b 002e 0009 0002 1090 1ff7 20 11011001 BNE   $1112              26 05 8d 0c cc    11055 
1112 002e 0009 0002 1090 1ff7 20 11011001 STD   $10A0              fd 10 a0 30 1f    11058 
1115 002e 0009 0002 1090 1ff7 20 11010001 LEAX  -$1,X              30 1f 26 bd 35    11064 
1117 002e 0008 0002 1090 1ff7 20 11010001 BNE   $10D6              26 bd 35 d6 34    11069 
10d6 002e 0008 0002 1090 1ff7 20 11010001 CLRA                     4f e6 c0 f3 10    11072 
10d7 002e 0008 0002 1090 1ff7 20 11010100 LDB   ,U+                e6 c0 f3 10 9a    11074 
10d9 0049 0008 0002 1091 1ff7 20 11010000 ADDD  $109A              f3 10 9a fd 10    11080 
10dc 95b5 0008 0002 1091 1ff7 20 11011000 STD   $109A              fd 10 9a 24 09    11087 
10df 95b5 0008 0002 1091 1ff7 20 11011000 BCC   $10EA              24 09 fc 10 98    11093 
10ea 95b5 0008 0002 1091 1ff7 20 11011000 LDD   $109A              fc 10 9a f3 10    11096 
10ed 95b5 0008 0002 1091 1ff7 20 11011000 ADDD  $109E              f3 10 9e fd 10    11102 
10f0 b2e6 0008 0002 1091 1ff7 20 11011000 STD   $109E              fd 10 9e fc 10    11109 
10f3 b2e6 0008 0002 1091 1ff7 20 11011000 LDD   $1098              fc 10 98 24 03    11115 
10f6 53ce 0008 0002 1091 1ff7 20 11010000 BCC   $10FB              24 03 c3 00 01    11121 
10fb 53ce 0008 0002 1091 1ff7 20 11010000 ADDD  $109C              f3 10 9c fd 10    11124 
10fe 99e0 0008 0002 1091 1ff7 20 11011010 STD   $109C              fd 10 9c fc 10    11131 
1101 99e0 0008 0002 1091 1ff7 20 11011000 LDD   $10A0              fc 10 a0 c3 00    11137 
1104 002e 0008 0002 1091 1ff7 20 11010000 ADDD  #$0001             c3 00 01 10 83    11143 
1107 002f 0008 0002 1091 1ff7 20 11010000 CMPD  #$15AE             10 83 15 ae 26    11147 
110b 002f 0008 0002 1091 1ff7 20 11011001 BNE   $1112              26 05 8d 0c cc    11152 
1112 002f 0008 0002 1091 1ff7 20 11011001 STD   $10A0              fd 10 a0 30 1f    11155 
1115 002f 0008 0002 1091 1ff7 20 11010001 LEAX  -$1,X              30 1f 26 bd 35    11161 
1117 002f 0007 0002 1091 1ff7 20 11010001 BNE   $10D6              26 bd 35 d6 34    11166 
10d6 002f 0007 0002 1091 1ff7 20 11010001 CLRA                     4f e6 c0 f3 10    11169 
10d7 002f 0007 0002 1091 1ff7 20 11010100 LDB   ,U+                e6 c0 f3 10 9a    11171 
10d9 0049 0007 0002 1092 1ff7 20 11010000 ADDD  $109A              f3 10 9a fd 10    11177 
10dc 95fe 0007 0002 1092 1ff7 20 11011000 STD   $109A              fd 10 9a 24 09    11184 
10df 95fe 0007 0002 1092 1ff7 20 11011000 BCC   $10EA              24 09 fc 10 98    11190 
10ea 95fe 0007 0002 1092 1ff7 20 11011000 LDD   $109A              fc 10 9a f3 10    11193 
10ed 95fe 0007 0002 1092 1ff7 20 11011000 ADDD  $109E              f3 10 9e fd 10    11199 
10f0 48e4 0007 0002 1092 1ff7 20 11010011 STD   $109E              fd 10 9e fc 10    11206 
10f3 48e4 0007 0002 1092 1ff7 20 11010001 LDD   $1098              fc 10 98 24 03    11212 
10f6 53ce 0007 0002 1092 1ff7 20 11010001 BCC   $10FB              24 03 c3 00 01    11218 
10f8 53ce 0007 0002 1092 1ff7 20 11010001 ADDD  #$0001             c3 00 01 f3 10    11221 
10fb 53cf 0007 0002 1092 1ff7 20 11010000 ADDD  $109C              f3 10 9c fd 10    11225 
10fe edaf 0007 0002 1092 1ff7 20 11011000 STD   $109C              fd 10 9c fc 10    11232 
1101 edaf 0007 0002 1092 1ff7 20 11011000 LDD   $10A0              fc 10 a0 c3 00    11238 
1104 002f 0007 0002 1092 1ff7 20 11010000 ADDD  #$0001             c3 00 01 10 83    11244 
1107 0030 0007 0002 1092 1ff7 20 11010000 CMPD  #$15AE             10 83 15 ae 26    11248 
110b 0030 0007 0002 1092 1ff7 20 11011001 BNE   $1112              26 05 8d 0c cc    11253 
1112 0030 0007 0002 1092 1ff7 20 11011001 STD   $10A0              fd 10 a0 30 1f    11256 
1115 0030 0007 0002 1092 1ff7 20 11010001 LEAX  -$1,X              30 1f 26 bd 35    11262 
1117 0030 0006 0002 1092 1ff7 20 11010001 BNE   $10D6              26 bd 35 d6 34    11267 
10d6 0030 0006 0002 1092 1ff7 20 11010001 CLRA                     4f e6 c0 f3 10    11270 
10d7 0030 0006 0002 1092 1ff7 20 11010100 LDB   ,U+                e6 c0 f3 10 9a    11272 
10d9 0049 0006 0002 1093 1ff7 20 11010000 ADDD  $109A              f3 10 9a fd 10    11278 
10dc 9647 0006 0002 1093 1ff7 20 11011000 STD   $109A              fd 10 9a 24 09    11285 
10df 9647 0006 0002 1093 1ff7 20 11011000 BCC   $10EA              24 09 fc 10 98    11291 
10ea 9647 0006 0002 1093 1ff7 20 11011000 LDD   $109A              fc 10 9a f3 10    11294 
10ed 9647 0006 0002 1093 1ff7 20 11011000 ADDD  $109E              f3 10 9e fd 10    11300 
10f0 df2b 0006 0002 1093 1ff7 20 11011000 STD   $109E              fd 10 9e fc 10    11307 
10f3 df2b 0006 0002 1093 1ff7 20 11011000 LDD   $1098              fc 10 98 24 03    11313 
10f6 53ce 0006 0002 1093 1ff7 20 11010000 BCC   $10FB              24 03 c3 00 01    11319 
10fb 53ce 0006 0002 1093 1ff7 20 11010000 ADDD  $109C              f3 10 9c fd 10    11322 
10fe 417d 0006 0002 1093 1ff7 20 11010001 STD   $109C              fd 10 9c fc 10    11329 
1101 417d 0006 0002 1093 1ff7 20 11010001 LDD   $10A0              fc 10 a0 c3 00    11335 
1104 0030 0006 0002 1093 1ff7 20 11010001 ADDD  #$0001             c3 00 01 10 83    11341 
1107 0031 0006 0002 1093 1ff7 20 11010000 CMPD  #$15AE             10 83 15 ae 26    11345 
110b 0031 0006 0002 1093 1ff7 20 11011001 BNE   $1112              26 05 8d 0c cc    11350 
1112 0031 0006 0002 1093 1ff7 20 11011001 STD   $10A0              fd 10 a0 30 1f    11353 
1115 0031 0006 0002 1093 1ff7 20 11010001 LEAX  -$1,X              30 1f 26 bd 35    11359 
1117 0031 0005 0002 1093 1ff7 20 11010001 BNE   $10D6              26 bd 35 d6 34    11364 
10d6 0031 0005 0002 1093 1ff7 20 11010001 CLRA                     4f e6 c0 f3 10    11367 
10d7 0031 0005 0002 1093 1ff7 20 11010100 LDB   ,U+                e6 c0 f3 10 9a    11369 
10d9 0049 0005 0002 1094 1ff7 20 11010000 ADDD  $109A              f3 10 9a fd 10    11375 
10dc 9690 0005 0002 1094 1ff7 20 11011000 STD   $109A              fd 10 9a 24 09    11382 
10df 9690 0005 0002 1094 1ff7 20 11011000 BCC   $10EA              24 09 fc 10 98    11388 
10ea 9690 0005 0002 1094 1ff7 20 11011000 LDD   $109A              fc 10 9a f3 10    11391 
10ed 9690 0005 0002 1094 1ff7 20 11011000 ADDD  $109E              f3 10 9e fd 10    11397 
10f0 75bb 0005 0002 1094 1ff7 20 11010011 STD   $109E              fd 10 9e fc 10    11404 
10f3 75bb 0005 0002 1094 1ff7 20 11010001 LDD   $1098              fc 10 98 24 03    11410 
10f6 53ce 0005 0002 1094 1ff7 20 11010001 BCC   $10FB              24 03 c3 00 01    11416 
10f8 53ce 0005 0002 1094 1ff7 20 11010001 ADDD  #$0001             c3 00 01 f3 10    11419 
10fb 53cf 0005 0002 1094 1ff7 20 11010000 ADDD  $109C              f3 10 9c fd 10    11423 
10fe 954c 0005 0002 1094 1ff7 20 11011010 STD   $109C              fd 10 9c fc 10    11430 
1101 954c 0005 0002 1094 1ff7 20 11011000 LDD   $10A0              fc 10 a0 c3 00    11436 
1104 0031 0005 0002 1094 1ff7 20 11010000 ADDD  #$0001             c3 00 01 10 83    11442 
1107 0032 0005 0002 1094 1ff7 20 11010000 CMPD  #$15AE             10 83 15 ae 26    11446 
110b 0032 0005 0002 1094 1ff7 20 11011001 BNE   $1112              26 05 8d 0c cc    11451 
1112 0032 0005 0002 1094 1ff7 20 11011001 STD   $10A0              fd 10 a0 30 1f    11454 
1115 0032 0005 0002 1094 1ff7 20 11010001 LEAX  -$1,X              30 1f 26 bd 35    11460 
1117 0032 0004 0002 1094 1ff7 20 11010001 BNE   $10D6              26 bd 35 d6 34    11465 
10d6 0032 0004 0002 1094 1ff7 20 11010001 CLRA                     4f e6 c0 f3 10    11468 
10d7 0032 0004 0002 1094 1ff7 20 11010100 LDB   ,U+                e6 c0 f3 10 9a    11470 
10d9 0049 0004 0002 1095 1ff7 20 11010000 ADDD  $109A              f3 10 9a fd 10    11476 
10dc 96d9 0004 0002 1095 1ff7 20 11011000 STD   $109A              fd 10 9a 24 09    11483 
10df 96d9 0004 0002 1095 1ff7 20 11011000 BCC   $10EA              24 09 fc 10 98    11489 
10ea 96d9 0004 0002 1095 1ff7 20 11011000 LDD   $109A              fc 10 9a f3 10    11492 
10ed 96d9 0004 0002 1095 1ff7 20 11011000 ADDD  $109E              f3 10 9e fd 10    11498 
10f0 0c94 0004 0002 1095 1ff7 20 11010001 STD   $109E              fd 10 9e fc 10    11505 
10f3 0c94 0004 0002 1095 1ff7 20 11010001 LDD   $1098              fc 10 98 24 03    11511 
10f6 53ce 0004 0002 1095 1ff7 20 11010001 BCC   $10FB              24 03 c3 00 01    11517 
10f8 53ce 0004 0002 1095 1ff7 20 11010001 ADDD  #$0001             c3 00 01 f3 10    11520 
10fb 53cf 0004 0002 1095 1ff7 20 11010000 ADDD  $109C              f3 10 9c fd 10    11524 
10fe e91b 0004 0002 1095 1ff7 20 11011000 STD   $109C              fd 10 9c fc 10    11531 
1101 e91b 0004 0002 1095 1ff7 20 11011000 LDD   $10A0              fc 10 a0 c3 00    11537 
1104 0032 0004 0002 1095 1ff7 20 11010000 ADDD  #$0001             c3 00 01 10 83    11543 
1107 0033 0004 0002 1095 1ff7 20 11010000 CMPD  #$15AE             10 83 15 ae 26    11547 
110b 0033 0004 0002 1095 1ff7 20 11011001 BNE   $1112              26 05 8d 0c cc    11552 
1112 0033 0004 0002 1095 1ff7 20 11011001 STD   $10A0              fd 10 a0 30 1f    11555 
1115 0033 0004 0002 1095 1ff7 20 11010001 LEAX  -$1,X              30 1f 26 bd 35    11561 
1117 0033 0003 0002 1095 1ff7 20 11010001 BNE   $10D6              26 bd 35 d6 34    11566 
10d6 0033 0003 0002 1095 1ff7 20 11010001 CLRA                     4f e6 c0 f3 10    11569 
10d7 0033 0003 0002 1095 1ff7 20 11010100 LDB   ,U+                e6 c0 f3 10 9a    11571 
10d9 0049 0003 0002 1096 1ff7 20 11010000 ADDD  $109A              f3 10 9a fd 10    11577 
10dc 9722 0003 0002 1096 1ff7 20 11011000 STD   $109A              fd 10 9a 24 09    11584 
10df 9722 0003 0002 1096 1ff7 20 11011000 BCC   $10EA              24 09 fc 10 98    11590 
10ea 9722 0003 0002 1096 1ff7 20 11011000 LDD   $109A              fc 10 9a f3 10    11593 
10ed 9722 0003 0002 1096 1ff7 20 11011000 ADDD  $109E              f3 10 9e fd 10    11599 
10f0 a3b6 0003 0002 1096 1ff7 20 11011000 STD   $109E              fd 10 9e fc 10    11606 
10f3 a3b6 0003 0002 1096 1ff7 20 11011000 LDD   $1098              fc 10 98 24 03    11612 
10f6 53ce 0003 0002 1096 1ff7 20 11010000 BCC   $10FB              24 03 c3 00 01    11618 
10fb 53ce 0003 0002 1096 1ff7 20 11010000 ADDD  $109C              f3 10 9c fd 10    11621 
10fe 3ce9 0003 0002 1096 1ff7 20 11010001 STD   $109C              fd 10 9c fc 10    11628 
1101 3ce9 0003 0002 1096 1ff7 20 11010001 LDD   $10A0              fc 10 a0 c3 00    11634 
1104 0033 0003 0002 1096 1ff7 20 11010001 ADDD  #$0001             c3 00 01 10 83    11640 
1107 0034 0003 0002 1096 1ff7 20 11010000 CMPD  #$15AE             10 83 15 ae 26    11644 
110b 0034 0003 0002 1096 1ff7 20 11011001 BNE   $1112              26 05 8d 0c cc    11649 
1112 0034 0003 0002 1096 1ff7 20 11011001 STD   $10A0              fd 10 a0 30 1f    11652 
1115 0034 0003 0002 1096 1ff7 20 11010001 LEAX  -$1,X              30 1f 26 bd 35    11658 
1117 0034 0002 0002 1096 1ff7 20 11010001 BNE   $10D6              26 bd 35 d6 34    11663 
10d6 0034 0002 0002 1096 1ff7 20 11010001 CLRA                     4f e6 c0 f3 10    11666 
10d7 0034 0002 0002 1096 1ff7 20 11010100 LDB   ,U+                e6 c0 f3 10 9a    11668 
10d9 0049 0002 0002 1097 1ff7 20 11010000 ADDD  $109A              f3 10 9a fd 10    11674 
10dc 976b 0002 0002 1097 1ff7 20 11011000 STD   $109A              fd 10 9a 24 09    11681 
10df 976b 0002 0002 1097 1ff7 20 11011000 BCC   $10EA              24 09 fc 10 98    11687 
10ea 976b 0002 0002 1097 1ff7 20 11011000 LDD   $109A              fc 10 9a f3 10    11690 
10ed 976b 0002 0002 1097 1ff7 20 11011000 ADDD  $109E              f3 10 9e fd 10    11696 
10f0 3b21 0002 0002 1097 1ff7 20 11010011 STD   $109E              fd 10 9e fc 10    11703 
10f3 3b21 0002 0002 1097 1ff7 20 11010001 LDD   $1098              fc 10 98 24 03    11709 
10f6 53ce 0002 0002 1097 1ff7 20 11010001 BCC   $10FB              24 03 c3 00 01    11715 
10f8 53ce 0002 0002 1097 1ff7 20 11010001 ADDD  #$0001             c3 00 01 f3 10    11718 
10fb 53cf 0002 0002 1097 1ff7 20 11010000 ADDD  $109C              f3 10 9c fd 10    11722 
10fe 90b8 0002 0002 1097 1ff7 20 11011010 STD   $109C              fd 10 9c fc 10    11729 
1101 90b8 0002 0002 1097 1ff7 20 11011000 LDD   $10A0              fc 10 a0 c3 00    11735 
1104 0034 0002 0002 1097 1ff7 20 11010000 ADDD  #$0001             c3 00 01 10 83    11741 
1107 0035 0002 0002 1097 1ff7 20 11010000 CMPD  #$15AE             10 83 15 ae 26    11745 
110b 0035 0002 0002 1097 1ff7 20 11011001 BNE   $1112              26 05 8d 0c cc    11750 
1112 0035 0002 0002 1097 1ff7 20 11011001 STD   $10A0              fd 10 a0 30 1f    11753 
1115 0035 0002 0002 1097 1ff7 20 11010001 LEAX  -$1,X              30 1f 26 bd 35    11759 
1117 0035 0001 0002 1097 1ff7 20 11010001 BNE   $10D6              26 bd 35 d6 34    11764 
10d6 0035 0001 0002 1097 1ff7 20 11010001 CLRA                     4f e6 c0 f3 10    11767 
10d7 0035 0001 0002 1097 1ff7 20 11010100 LDB   ,U+                e6 c0 f3 10 9a    11769 
10d9 0049 0001 0002 1098 1ff7 20 11010000 ADDD  $109A              f3 10 9a fd 10    11775 
10dc 97b4 0001 0002 1098 1ff7 20 11011000 STD   $109A              fd 10 9a 24 09    11782 
10df 97b4 0001 0002 1098 1ff7 20 11011000 BCC   $10EA              24 09 fc 10 98    11788 
10ea 97b4 0001 0002 1098 1ff7 20 11011000 LDD   $109A              fc 10 9a f3 10    11791 
10ed 97b4 0001 0002 1098 1ff7 20 11011000 ADDD  $109E              f3 10 9e fd 10    11797 
10f0 d2d5 0001 0002 1098 1ff7 20 11011000 STD   $109E              fd 10 9e fc 10    11804 
10f3 d2d5 0001 0002 1098 1ff7 20 11011000 LDD   $1098              fc 10 98 24 03    11810 
10f6 53ce 0001 0002 1098 1ff7 20 11010000 BCC   $10FB              24 03 c3 00 01    11816 
10fb 53ce 0001 0002 1098 1ff7 20 11010000 ADDD  $109C              f3 10 9c fd 10    11819 
10fe e486 0001 0002 1098 1ff7 20 11011000 STD   $109C              fd 10 9c fc 10    11826 
1101 e486 0001 0002 1098 1ff7 20 11011000 LDD   $10A0              fc 10 a0 c3 00    11832 
1104 0035 0001 0002 1098 1ff7 20 11010000 ADDD  #$0001             c3 00 01 10 83    11838 
1107 0036 0001 0002 1098 1ff7 20 11010000 CMPD  #$15AE             10 83 15 ae 26    11842 
110b 0036 0001 0002 1098 1ff7 20 11011001 BNE   $1112              26 05 8d 0c cc    11847 
1112 0036 0001 0002 1098 1ff7 20 11011001 STD   $10A0              fd 10 a0 30 1f    11850 
1115 0036 0001 0002 1098 1ff7 20 11010001 LEAX  -$1,X              30 1f 26 bd 35    11856 
1117 0036 0000 0002 1098 1ff7 20 11010101 BNE   $10D6              26 bd 35 d6 34    11861 
1119 0036 0000 0002 1098 1ff7 20 11010101 PULS  A,B,X,U,PC         35 d6 34 50 ce    11864 
1023 f487 0012 0002 1086 1fff 20 11010101 LDX   #$1086             8e 10 86 ce 10    11877 
1026 f487 1086 0002 1086 1fff 20 11010001 LDU   #$1087             ce 10 87 a6 80    11880 
1029 f487 1086 0002 1087 1fff 20 11010001 LDA   ,X+                a6 80 a7 c0 8c    11883 
102b 5387 1087 0002 1087 1fff 20 11010001 STA   ,U+                a7 c0 8c 10 98    11889 
102d 5387 1087 0002 1088 1fff 20 11010001 CMPX  #$1098             8c 10 98 26 f7    11895 
1030 5387 1087 0002 1088 1fff 20 11011001 BNE   $1029              26 f7 bd 11 87    11899 
1029 5387 1087 0002 1088 1fff 20 11011001 LDA   ,X+                a6 80 a7 c0 8c    11902 
102b 5387 1088 0002 1088 1fff 20 11010001 STA   ,U+                a7 c0 8c 10 98    11908 
102d 5387 1088 0002 1089 1fff 20 11010001 CMPX  #$1098             8c 10 98 26 f7    11914 
1030 5387 1088 0002 1089 1fff 20 11011001 BNE   $1029              26 f7 bd 11 87    11918 
1029 5387 1088 0002 1089 1fff 20 11011001 LDA   ,X+                a6 80 a7 c0 8c    11921 
102b 5387 1089 0002 1089 1fff 20 11010001 STA   ,U+                a7 c0 8c 10 98    11927 
102d 5387 1089 0002 108a 1fff 20 11010001 CMPX  #$1098             8c 10 98 26 f7    11933 
1030 5387 1089 0002 108a 1fff 20 11011001 BNE   $1029              26 f7 bd 11 87    11937 
1029 5387 1089 0002 108a 1fff 20 11011001 LDA   ,X+                a6 80 a7 c0 8c    11940 
102b 5387 108a 0002 108a 1fff 20 11010001 STA   ,U+                a7 c0 8c 10 98    11946 
102d 5387 108a 0002 108b 1fff 20 11010001 CMPX  #$1098             8c 10 98 26 f7    11952 
1030 5387 108a 0002 108b 1fff 20 11011001 BNE   $1029              26 f7 bd 11 87    11956 
1029 5387 108a 0002 108b 1fff 20 11011001 LDA   ,X+                a6 80 a7 c0 8c    11959 
102b 5387 108b 0002 108b 1fff 20 11010001 STA   ,U+                a7 c0 8c 10 98    11965 
102d 5387 108b 0002 108c 1fff 20 11010001 CMPX  #$1098             8c 10 98 26 f7    11971 
1030 5387 108b 0002 108c 1fff 20 11011001 BNE   $1029              26 f7 bd 11 87    11975 
1029 5387 108b 0002 108c 1fff 20 11011001 LDA   ,X+                a6 80 a7 c0 8c    11978 
102b 5387 108c 0002 108c 1fff 20 11010001 STA   ,U+                a7 c0 8c 10 98    11984 
102d 5387 108c 0002 108d 1fff 20 11010001 CMPX  #$1098             8c 10 98 26 f7    11990 
1030 5387 108c 0002 108d 1fff 20 11011001 BNE   $1029              26 f7 bd 11 87    11994 
1029 5387 108c 0002 108d 1fff 20 11011001 LDA   ,X+                a6 80 a7 c0 8c    11997 
102b 5387 108d 0002 108d 1fff 20 11010001 STA   ,U+                a7 c0 8c 10 98    12003 
102d 5387 108d 0002 108e 1fff 20 11010001 CMPX  #$1098             8c 10 98 26 f7    12009 
1030 5387 108d 0002 108e 1fff 20 11011001 BNE   $1029              26 f7 bd 11 87    12013 
1029 5387 108d 0002 108e 1fff 20 11011001 LDA   ,X+                a6 80 a7 c0 8c    12016 
102b 5387 108e 0002 108e 1fff 20 11010001 STA   ,U+                a7 c0 8c 10 98    12022 
102d 5387 108e 0002 108f 1fff 20 11010001 CMPX  #$1098             8c 10 98 26 f7    12028 
1030 5387 108e 0002 108f 1fff 20 11011001 BNE   $1029              26 f7 bd 11 87    12032 
1029 5387 108e 0002 108f 1fff 20 11011001 LDA   ,X+                a6 80 a7 c0 8c    12035 
102b 5387 108f 0002 108f 1fff 20 11010001 STA   ,U+                a7 c0 8c 10 98    12041 
102d 5387 108f 0002 1090 1fff 20 11010001 CMPX  #$1098             8c 10 98 26 f7    12047 
1030 5387 108f 0002 1090 1fff 20 11011001 BNE   $1029              26 f7 bd 11 87    12051 
1029 5387 108f 0002 1090 1fff 20 11011001 LDA   ,X+                a6 80 a7 c0 8c    12054 
102b 5387 1090 0002 1090 1fff 20 11010001 STA   ,U+                a7 c0 8c 10 98    12060 
102d 5387 1090 0002 1091 1fff 20 11010001 CMPX  #$1098             8c 10 98 26 f7    12066 
1030 5387 1090 0002 1091 1fff 20 11011001 BNE   $1029              26 f7 bd 11 87    12070 
1029 5387 1090 0002 1091 1fff 20 11011001 LDA   ,X+                a6 80 a7 c0 8c    12073 
102b 5387 1091 0002 1091 1fff 20 11010001 STA   ,U+                a7 c0 8c 10 98    12079 
102d 5387 1091 0002 1092 1fff 20 11010001 CMPX  #$1098             8c 10 98 26 f7    12085 
1030 5387 1091 0002 1092 1fff 20 11011001 BNE   $1029              26 f7 bd 11 87    12089 
1029 5387 1091 0002 1092 1fff 20 11011001 LDA   ,X+                a6 80 a7 c0 8c    12092 
102b 5387 1092 0002 1092 1fff 20 11010001 STA   ,U+                a7 c0 8c 10 98    12098 
102d 5387 1092 0002 1093 1fff 20 11010001 CMPX  #$1098             8c 10 98 26 f7    12104 
1030 5387 1092 0002 1093 1fff 20 11011001 BNE   $1029              26 f7 bd 11 87    12108 
1029 5387 1092 0002 1093 1fff 20 11011001 LDA   ,X+                a6 80 a7 c0 8c    12111 
102b 5387 1093 0002 1093 1fff 20 11010001 STA   ,U+                a7 c0 8c 10 98    12117 
102d 5387 1093 0002 1094 1fff 20 11010001 CMPX  #$1098             8c 10 98 26 f7    12123 
1030 5387 1093 0002 1094 1fff 20 11011001 BNE   $1029              26 f7 bd 11 87    12127 
1029 5387 1093 0002 1094 1fff 20 11011001 LDA   ,X+                a6 80 a7 c0 8c    12130 
102b 5387 1094 0002 1094 1fff 20 11010001 STA   ,U+                a7 c0 8c 10 98    12136 
102d 5387 1094 0002 1095 1fff 20 11010001 CMPX  #$1098             8c 10 98 26 f7    12142 
1030 5387 1094 0002 1095 1fff 20 11011001 BNE   $1029              26 f7 bd 11 87    12146 
1029 5387 1094 0002 1095 1fff 20 11011001 LDA   ,X+                a6 80 a7 c0 8c    12149 
102b 5387 1095 0002 1095 1fff 20 11010001 STA   ,U+                a7 c0 8c 10 98    12155 
102d 5387 1095 0002 1096 1fff 20 11010001 CMPX  #$1098             8c 10 98 26 f7    12161 
1030 5387 1095 0002 1096 1fff 20 11011001 BNE   $1029              26 f7 bd 11 87    12165 
1029 5387 1095 0002 1096 1fff 20 11011001 LDA   ,X+                a6 80 a7 c0 8c    12168 
102b 5387 1096 0002 1096 1fff 20 11010001 STA   ,U+                a7 c0 8c 10 98    12174 
102d 5387 1096 0002 1097 1fff 20 11010001 CMPX  #$1098             8c 10 98 26 f7    12180 
1030 5387 1096 0002 1097 1fff 20 11011001 BNE   $1029              26 f7 bd 11 87    12184 
1029 5387 1096 0002 1097 1fff 20 11011001 LDA   ,X+                a6 80 a7 c0 8c    12187 
102b 5387 1097 0002 1097 1fff 20 11010001 STA   ,U+                a7 c0 8c 10 98    12193 
102d 5387 1097 0002 1098 1fff 20 11010001 CMPX  #$1098             8c 10 98 26 f7    12199 
1030 5387 1097 0002 1098 1fff 20 11011001 BNE   $1029              26 f7 bd 11 87    12203 
1029 5387 1097 0002 1098 1fff 20 11011001 LDA   ,X+                a6 80 a7 c0 8c    12206 
102b 5387 1098 0002 1098 1fff 20 11010001 STA   ,U+                a7 c0 8c 10 98    12212 
102d 5387 1098 0002 1099 1fff 20 11010001 CMPX  #$1098             8c 10 98 26 f7    12218 
1030 5387 1098 0002 1099 1fff 20 11010100 BNE   $1029              26 f7 bd 11 87    12222 
1032 5387 1098 0002 1099 1fff 20 11010100 JSR   $1187              bd 11 87 8e 10    12225 
1187 5387 1098 0002 1099 1ffd 20 11010100 LDD   $10A0              fc 10 a0 27 02    12233 
118a 0036 1098 0002 1099 1ffd 20 11010000 BEQ   $118E              27 02 8d 8d fc    12239 
118c 0036 1098 0002 1099 1ffd 20 11010000 BSR   $111B              8d 8d fc 10 9e    12242 
111b 0036 1098 0002 1099 1ffb 20 11010000 PSHS  U,X                34 50 ce 10 98    12249 
111d 0036 1098 0002 1099 1ff7 20 11010000 LDU   #$1098             ce 10 98 8e ff    12258 
1120 0036 1098 0002 1098 1ff7 20 11010000 LDX   #$FFF1             8e ff f1 8d 07    12261 
1123 0036 fff1 0002 1098 1ff7 20 11011000 BSR   $112C              8d 07 ce 10 9c    12264 
112c 0036 fff1 0002 1098 1ff5 20 11011000 PSHS  X,B,A              34 16 9f 02 8e    12271 
112e 0036 fff1 0002 1098 1ff1 20 11011000 STX   <$02               9f 02 8e 00 00    12280 
1130 0036 fff1 0002 1098 1ff1 20 11011000 LDX   #$0000             8e 00 00 9f 00    12285 
1133 0036 0000 0002 1098 1ff1 20 11010100 STX   <$00               9f 00 ec c4 10    12288 
1135 0036 0000 0002 1098 1ff1 20 11010100 LDD   ,U                 ec c4 10 93 00    12293 
1137 53ce 0000 0002 1098 1ff1 20 11010000 CMPD  <$00               10 93 00 22 0b    12298 
113a 53ce 0000 0002 1098 1ff1 20 11010000 BHI   $1147              22 0b 25 15 ec    12305 
1147 53ce 0000 0002 1098 1ff1 20 11010000 ASL   <$03               08 03 09 02 09    12308 
1149 53ce 0000 0002 1098 1ff1 20 11011001 ROL   <$02               09 02 09 01 09    12314 
114b 53ce 0000 0002 1098 1ff1 20 11011001 ROL   <$01               09 01 09 00 30    12320 
114d 53ce 0000 0002 1098 1ff1 20 11010000 ROL   <$00               09 00 30 01 20    12326 
114f 53ce 0000 0002 1098 1ff1 20 11010100 LEAX  $1,X               30 01 20 e2 8c    12332 
1151 53ce 0001 0002 1098 1ff1 20 11010000 BRA   $1135              20 e2 8c 00 00    12337 
1135 53ce 0001 0002 1098 1ff1 20 11010000 LDD   ,U                 ec c4 10 93 00    12340 
1137 53ce 0001 0002 1098 1ff1 20 11010000 CMPD  <$00               10 93 00 22 0b    12345 
113a 53ce 0001 0002 1098 1ff1 20 11010000 BHI   $1147              22 0b 25 15 ec    12352 
1147 53ce 0001 0002 1098 1ff1 20 11010000 ASL   <$03               08 03 09 02 09    12355 
1149 53ce 0001 0002 1098 1ff1 20 11011001 ROL   <$02               09 02 09 01 09    12361 
114b 53ce 0001 0002 1098 1ff1 20 11011001 ROL   <$01               09 01 09 00 30    12367 
114d 53ce 0001 0002 1098 1ff1 20 11010000 ROL   <$00               09 00 30 01 20    12373 
114f 53ce 0001 0002 1098 1ff1 20 11010100 LEAX  $1,X               30 01 20 e2 8c    12379 
1151 53ce 0002 0002 1098 1ff1 20 11010000 BRA   $1135              20 e2 8c 00 00    12384 
1135 53ce 0002 0002 1098 1ff1 20 11010000 LDD   ,U                 ec c4 10 93 00    12387 
1137 53ce 0002 0002 1098 1ff1 20 11010000 CMPD  <$00               10 93 00 22 0b    12392 
113a 53ce 0002 0002 1098 1ff1 20 11010000 BHI   $1147              22 0b 25 15 ec    12399 
1147 53ce 0002 0002 1098 1ff1 20 11010000 ASL   <$03               08 03 09 02 09    12402 
1149 53ce 0002 0002 1098 1ff1 20 11011001 ROL   <$02               09 02 09 01 09    12408 
114b 53ce 0002 0002 1098 1ff1 20 11011001 ROL   <$01               09 01 09 00 30    12414 
114d 53ce 0002 0002 1098 1ff1 20 11010000 ROL   <$00               09 00 30 01 20    12420 
114f 53ce 0002 0002 1098 1ff1 20 11010100 LEAX  $1,X               30 01 20 e2 8c    12426 
1151 53ce 0003 0002 1098 1ff1 20 11010000 BRA   $1135              20 e2 8c 00 00    12431 
1135 53ce 0003 0002 1098 1ff1 20 11010000 LDD   ,U                 ec c4 10 93 00    12434 
1137 53ce 0003 0002 1098 1ff1 20 11010000 CMPD  <$00               10 93 00 22 0b    12439 
113a 53ce 0003 0002 1098 1ff1 20 11010000 BHI   $1147              22 0b 25 15 ec    12446 
1147 53ce 0003 0002 1098 1ff1 20 11010000 ASL   <$03               08 03 09 02 09    12449 
1149 53ce 0003 0002 1098 1ff1 20 11010011 ROL   <$02               09 02 09 01 09    12455 
114b 53ce 0003 0002 1098 1ff1 20 11011001 ROL   <$01               09 01 09 00 30    12461 
114d 53ce 0003 0002 1098 1ff1 20 11010000 ROL   <$00               09 00 30 01 20    12467 
114f 53ce 0003 0002 1098 1ff1 20 11010100 LEAX  $1,X               30 01 20 e2 8c    12473 
1151 53ce 0004 0002 1098 1ff1 20 11010000 BRA   $1135              20 e2 8c 00 00    12478 
1135 53ce 0004 0002 1098 1ff1 20 11010000 LDD   ,U                 ec c4 10 93 00    12481 
1137 53ce 0004 0002 1098 1ff1 20 11010000 CMPD  <$00               10 93 00 22 0b    12486 
113a 53ce 0004 0002 1098 1ff1 20 11010000 BHI   $1147              22 0b 25 15 ec    12493 
1147 53ce 0004 0002 1098 1ff1 20 11010000 ASL   <$03               08 03 09 02 09    12496 
1149 53ce 0004 0002 1098 1ff1 20 11010000 ROL   <$02               09 02 09 01 09    12502 
114b 53ce 0004 0002 1098 1ff1 20 11011001 ROL   <$01               09 01 09 00 30    12508 
114d 53ce 0004 0002 1098 1ff1 20 11010000 ROL   <$00               09 00 30 01 20    12514 
114f 53ce 0004 0002 1098 1ff1 20 11010100 LEAX  $1,X               30 01 20 e2 8c    12520 
1151 53ce 0005 0002 1098 1ff1 20 11010000 BRA   $1135              20 e2 8c 00 00    12525 
1135 53ce 0005 0002 1098 1ff1 20 11010000 LDD   ,U                 ec c4 10 93 00    12528 
1137 53ce 0005 0002 1098 1ff1 20 11010000 CMPD  <$00               10 93 00 22 0b    12533 
113a 53ce 0005 0002 1098 1ff1 20 11010000 BHI   $1147              22 0b 25 15 ec    12540 
1147 53ce 0005 0002 1098 1ff1 20 11010000 ASL   <$03               08 03 09 02 09    12543 
1149 53ce 0005 0002 1098 1ff1 20 11010000 ROL   <$02               09 02 09 01 09    12549 
114b 53ce 0005 0002 1098 1ff1 20 11011001 ROL   <$01               09 01 09 00 30    12555 
114d 53ce 0005 0002 1098 1ff1 20 11010000 ROL   <$00               09 00 30 01 20    12561 
114f 53ce 0005 0002 1098 1ff1 20 11010100 LEAX  $1,X               30 01 20 e2 8c    12567 
1151 53ce 0006 0002 1098 1ff1 20 11010000 BRA   $1135              20 e2 8c 00 00    12572 
1135 53ce 0006 0002 1098 1ff1 20 11010000 LDD   ,U                 ec c4 10 93 00    12575 
1137 53ce 0006 0002 1098 1ff1 20 11010000 CMPD  <$00               10 93 00 22 0b    12580 
113a 53ce 0006 0002 1098 1ff1 20 11010000 BHI   $1147              22 0b 25 15 ec    12587 
1147 53ce 0006 0002 1098 1ff1 20 11010000 ASL   <$03               08 03 09 02 09    12590 
1149 53ce 0006 0002 1098 1ff1 20 11011010 ROL   <$02               09 02 09 01 09    12596 
114b 53ce 0006 0002 1098 1ff1 20 11011001 ROL   <$01               09 01 09 00 30    12602 
114d 53ce 0006 0002 1098 1ff1 20 11010000 ROL   <$00               09 00 30 01 20    12608 
114f 53ce 0006 0002 1098 1ff1 20 11010100 LEAX  $1,X               30 01 20 e2 8c    12614 
1151 53ce 0007 0002 1098 1ff1 20 11010000 BRA   $1135              20 e2 8c 00 00    12619 
1135 53ce 0007 0002 1098 1ff1 20 11010000 LDD   ,U                 ec c4 10 93 00    12622 
1137 53ce 0007 0002 1098 1ff1 20 11010000 CMPD  <$00               10 93 00 22 0b    12627 
113a 53ce 0007 0002 1098 1ff1 20 11010000 BHI   $1147              22 0b 25 15 ec    12634 
1147 53ce 0007 0002 1098 1ff1 20 11010000 ASL   <$03               08 03 09 02 09    12637 
1149 53ce 0007 0002 1098 1ff1 20 11010111 ROL   <$02               09 02 09 01 09    12643 
114b 53ce 0007 0002 1098 1ff1 20 11011001 ROL   <$01               09 01 09 00 30    12649 
114d 53ce 0007 0002 1098 1ff1 20 11011010 ROL   <$00               09 00 30 01 20    12655 
114f 53ce 0007 0002 1098 1ff1 20 11010100 LEAX  $1,X               30 01 20 e2 8c    12661 
1151 53ce 0008 0002 1098 1ff1 20 11010000 BRA   $1135              20 e2 8c 00 00    12666 
1135 53ce 0008 0002 1098 1ff1 20 11010000 LDD   ,U                 ec c4 10 93 00    12669 
1137 53ce 0008 0002 1098 1ff1 20 11010000 CMPD  <$00               10 93 00 22 0b    12674 
113a 53ce 0008 0002 1098 1ff1 20 11010000 BHI   $1147              22 0b 25 15 ec    12681 
1147 53ce 0008 0002 1098 1ff1 20 11010000 ASL   <$03               08 03 09 02 09    12684 
1149 53ce 0008 0002 1098 1ff1 20 11010100 ROL   <$02               09 02 09 01 09    12690 
114b 53ce 0008 0002 1098 1ff1 20 11011001 ROL   <$01               09 01 09 00 30    12696 
114d 53ce 0008 0002 1098 1ff1 20 11011001 ROL   <$00               09 00 30 01 20    12702 
114f 53ce 0008 0002 1098 1ff1 20 11010000 LEAX  $1,X               30 01 20 e2 8c    12708 
1151 53ce 0009 0002 1098 1ff1 20 11010000 BRA   $1135              20 e2 8c 00 00    12713 
1135 53ce 0009 0002 1098 1ff1 20 11010000 LDD   ,U                 ec c4 10 93 00    12716 
1137 53ce 0009 0002 1098 1ff1 20 11010000 CMPD  <$00               10 93 00 22 0b    12721 
113a 53ce 0009 0002 1098 1ff1 20 11010000 BHI   $1147              22 0b 25 15 ec    12728 
1147 53ce 0009 0002 1098 1ff1 20 11010000 ASL   <$03               08 03 09 02 09    12731 
1149 53ce 0009 0002 1098 1ff1 20 11010100 ROL   <$02               09 02 09 01 09    12737 
114b 53ce 0009 0002 1098 1ff1 20 11011001 ROL   <$01               09 01 09 00 30    12743 
114d 53ce 0009 0002 1098 1ff1 20 11011001 ROL   <$00               09 00 30 01 20    12749 
114f 53ce 0009 0002 1098 1ff1 20 11010000 LEAX  $1,X               30 01 20 e2 8c    12755 
1151 53ce 000a 0002 1098 1ff1 20 11010000 BRA   $1135              20 e2 8c 00 00    12760 
1135 53ce 000a 0002 1098 1ff1 20 11010000 LDD   ,U                 ec c4 10 93 00    12763 
1137 53ce 000a 0002 1098 1ff1 20 11010000 CMPD  <$00               10 93 00 22 0b    12768 
113a 53ce 000a 0002 1098 1ff1 20 11010000 BHI   $1147              22 0b 25 15 ec    12775 
1147 53ce 000a 0002 1098 1ff1 20 11010000 ASL   <$03               08 03 09 02 09    12778 
1149 53ce 000a 0002 1098 1ff1 20 11010100 ROL   <$02               09 02 09 01 09    12784 
114b 53ce 000a 0002 1098 1ff1 20 11011001 ROL   <$01               09 01 09 00 30    12790 
114d 53ce 000a 0002 1098 1ff1 20 11011001 ROL   <$00               09 00 30 01 20    12796 
114f 53ce 000a 0002 1098 1ff1 20 11010000 LEAX  $1,X               30 01 20 e2 8c    12802 
1151 53ce 000b 0002 1098 1ff1 20 11010000 BRA   $1135              20 e2 8c 00 00    12807 
1135 53ce 000b 0002 1098 1ff1 20 11010000 LDD   ,U                 ec c4 10 93 00    12810 
1137 53ce 000b 0002 1098 1ff1 20 11010000 CMPD  <$00               10 93 00 22 0b    12815 
113a 53ce 000b 0002 1098 1ff1 20 11010000 BHI   $1147              22 0b 25 15 ec    12822 
1147 53ce 000b 0002 1098 1ff1 20 11010000 ASL   <$03               08 03 09 02 09    12825 
1149 53ce 000b 0002 1098 1ff1 20 11010100 ROL   <$02               09 02 09 01 09    12831 
114b 53ce 000b 0002 1098 1ff1 20 11010011 ROL   <$01               09 01 09 00 30    12837 
114d 53ce 000b 0002 1098 1ff1 20 11011001 ROL   <$00               09 00 30 01 20    12843 
114f 53ce 000b 0002 1098 1ff1 20 11010000 LEAX  $1,X               30 01 20 e2 8c    12849 
1151 53ce 000c 0002 1098 1ff1 20 11010000 BRA   $1135              20 e2 8c 00 00    12854 
1135 53ce 000c 0002 1098 1ff1 20 11010000 LDD   ,U                 ec c4 10 93 00    12857 
1137 53ce 000c 0002 1098 1ff1 20 11010000 CMPD  <$00               10 93 00 22 0b    12862 
113a 53ce 000c 0002 1098 1ff1 20 11010000 BHI   $1147              22 0b 25 15 ec    12869 
1147 53ce 000c 0002 1098 1ff1 20 11010000 ASL   <$03               08 03 09 02 09    12872 
1149 53ce 000c 0002 1098 1ff1 20 11010100 ROL   <$02               09 02 09 01 09    12878 
114b 53ce 000c 0002 1098 1ff1 20 11010000 ROL   <$01               09 01 09 00 30    12884 
114d 53ce 000c 0002 1098 1ff1 20 11011001 ROL   <$00               09 00 30 01 20    12890 
114f 53ce 000c 0002 1098 1ff1 20 11010000 LEAX  $1,X               30 01 20 e2 8c    12896 
1151 53ce 000d 0002 1098 1ff1 20 11010000 BRA   $1135              20 e2 8c 00 00    12901 
1135 53ce 000d 0002 1098 1ff1 20 11010000 LDD   ,U                 ec c4 10 93 00    12904 
1137 53ce 000d 0002 1098 1ff1 20 11010000 CMPD  <$00               10 93 00 22 0b    12909 
113a 53ce 000d 0002 1098 1ff1 20 11010000 BHI   $1147              22 0b 25 15 ec    12916 
1147 53ce 000d 0002 1098 1ff1 20 11010000 ASL   <$03               08 03 09 02 09    12919 
1149 53ce 000d 0002 1098 1ff1 20 11010100 ROL   <$02               09 02 09 01 09    12925 
114b 53ce 000d 0002 1098 1ff1 20 11010000 ROL   <$01               09 01 09 00 30    12931 
114d 53ce 000d 0002 1098 1ff1 20 11011001 ROL   <$00               09 00 30 01 20    12937 
114f 53ce 000d 0002 1098 1ff1 20 11010000 LEAX  $1,X               30 01 20 e2 8c    12943 
1151 53ce 000e 0002 1098 1ff1 20 11010000 BRA   $1135              20 e2 8c 00 00    12948 
1135 53ce 000e 0002 1098 1ff1 20 11010000 LDD   ,U                 ec c4 10 93 00    12951 
1137 53ce 000e 0002 1098 1ff1 20 11010000 CMPD  <$00               10 93 00 22 0b    12956 
113a 53ce 000e 0002 1098 1ff1 20 11010000 BHI   $1147              22 0b 25 15 ec    12963 
1147 53ce 000e 0002 1098 1ff1 20 11010000 ASL   <$03               08 03 09 02 09    12966 
1149 53ce 000e 0002 1098 1ff1 20 11010100 ROL   <$02               09 02 09 01 09    12972 
114b 53ce 000e 0002 1098 1ff1 20 11011010 ROL   <$01               09 01 09 00 30    12978 
114d 53ce 000e 0002 1098 1ff1 20 11011001 ROL   <$00               09 00 30 01 20    12984 
114f 53ce 000e 0002 1098 1ff1 20 11010000 LEAX  $1,X               30 01 20 e2 8c    12990 
1151 53ce 000f 0002 1098 1ff1 20 11010000 BRA   $1135              20 e2 8c 00 00    12995 
1135 53ce 000f 0002 1098 1ff1 20 11010000 LDD   ,U                 ec c4 10 93 00    12998 
1137 53ce 000f 0002 1098 1ff1 20 11010000 CMPD  <$00               10 93 00 22 0b    13003 
113a 53ce 000f 0002 1098 1ff1 20 11011001 BHI   $1147              22 0b 25 15 ec    13010 
113c 53ce 000f 0002 1098 1ff1 20 11011001 BCS   $1153              25 15 ec 42 10    13013 
1153 53ce 000f 0002 1098 1ff1 20 11011001 CMPX  #$0000             8c 00 00 27 2d    13016 
1156 53ce 000f 0002 1098 1ff1 20 11010000 BEQ   $1185              27 2d 04 00 06    13020 
1158 53ce 000f 0002 1098 1ff1 20 11010000 LSR   <$00               04 00 06 01 06    13023 
115a 53ce 000f 0002 1098 1ff1 20 11010001 ROR   <$01               06 01 06 02 06    13029 
115c 53ce 000f 0002 1098 1ff1 20 11011000 ROR   <$02               06 02 06 03 dc    13035 
115e 53ce 000f 0002 1098 1ff1 20 11010000 ROR   <$03               06 03 dc 00 10    13041 
1160 53ce 000f 0002 1098 1ff1 20 11010100 LDD   <$00               dc 00 10 a3 c4    13047 
1162 3ffc 000f 0002 1098 1ff1 20 11010000 CMPD  ,U                 10 a3 c4 25 09    13052 
1165 3ffc 000f 0002 1098 1ff1 20 11011001 BCS   $1170              25 09 22 18 dc    13059 
1170 3ffc 000f 0002 1098 1ff1 20 11011001 LDD   $2,U               ec 42 93 02 ed    13062 
1172 97b4 000f 0002 1098 1ff1 20 11011001 SUBD  <$02               93 02 ed 42 ec    13068 
1174 57b4 000f 0002 1098 1ff1 20 11010010 STD   $2,U               ed 42 ec c4 24    13074 
1176 57b4 000f 0002 1098 1ff1 20 11010000 LDD   ,U                 ec c4 24 03 83    13080 
1178 53ce 000f 0002 1098 1ff1 20 11010000 BCC   $117D              24 03 83 00 01    13085 
117d 53ce 000f 0002 1098 1ff1 20 11010000 SUBD  <$00               93 00 ed c4 30    13088 
117f 13d2 000f 0002 1098 1ff1 20 11010000 STD   ,U                 ed c4 30 1f 26    13094 
1181 13d2 000f 0002 1098 1ff1 20 11010000 LEAX  -$1,X              30 1f 26 d3 35    13099 
1183 13d2 000e 0002 1098 1ff1 20 11010000 BNE   $1158              26 d3 35 96 fc    13104 
1158 13d2 000e 0002 1098 1ff1 20 11010000 LSR   <$00               04 00 06 01 06    13107 
115a 13d2 000e 0002 1098 1ff1 20 11010001 ROR   <$01               06 01 06 02 06    13113 
115c 13d2 000e 0002 1098 1ff1 20 11011000 ROR   <$02               06 02 06 03 dc    13119 
115e 13d2 000e 0002 1098 1ff1 20 11010000 ROR   <$03               06 03 dc 00 10    13125 
1160 13d2 000e 0002 1098 1ff1 20 11010100 LDD   <$00               dc 00 10 a3 c4    13131 
1162 1ffe 000e 0002 1098 1ff1 20 11010000 CMPD  ,U                 10 a3 c4 25 09    13136 
1165 1ffe 000e 0002 1098 1ff1 20 11010000 BCS   $1170              25 09 22 18 dc    13143 
1167 1ffe 000e 0002 1098 1ff1 20 11010000 BHI   $1181              22 18 dc 02 10    13146 
1181 1ffe 000e 0002 1098 1ff1 20 11010000 LEAX  -$1,X              30 1f 26 d3 35    13149 
1183 1ffe 000d 0002 1098 1ff1 20 11010000 BNE   $1158              26 d3 35 96 fc    13154 
1158 1ffe 000d 0002 1098 1ff1 20 11010000 LSR   <$00               04 00 06 01 06    13157 
115a 1ffe 000d 0002 1098 1ff1 20 11010001 ROR   <$01               06 01 06 02 06    13163 
115c 1ffe 000d 0002 1098 1ff1 20 11011000 ROR   <$02               06 02 06 03 dc    13169 
115e 1ffe 000d 0002 1098 1ff1 20 11010000 ROR   <$03               06 03 dc 00 10    13175 
1160 1ffe 000d 0002 1098 1ff1 20 11010100 LDD   <$00               dc 00 10 a3 c4    13181 
1162 0fff 000d 0002 1098 1ff1 20 11010000 CMPD  ,U                 10 a3 c4 25 09    13186 
1165 0fff 000d 0002 1098 1ff1 20 11011001 BCS   $1170              25 09 22 18 dc    13193 
1170 0fff 000d 0002 1098 1ff1 20 11011001 LDD   $2,U               ec 42 93 02 ed    13196 
1172 57b4 000d 0002 1098 1ff1 20 11010001 SUBD  <$02               93 02 ed 42 ec    13202 
1174 47b4 000d 0002 1098 1ff1 20 11010000 STD   $2,U               ed 42 ec c4 24    13208 
1176 47b4 000d 0002 1098 1ff1 20 11010000 LDD   ,U                 ec c4 24 03 83    13214 
1178 13d2 000d 0002 1098 1ff1 20 11010000 BCC   $117D              24 03 83 00 01    13219 
117d 13d2 000d 0002 1098 1ff1 20 11010000 SUBD  <$00               93 00 ed c4 30    13222 
117f 03d3 000d 0002 1098 1ff1 20 11010000 STD   ,U                 ed c4 30 1f 26    13228 
1181 03d3 000d 0002 1098 1ff1 20 11010000 LEAX  -$1,X              30 1f 26 d3 35    13233 
1183 03d3 000c 0002 1098 1ff1 20 11010000 BNE   $1158              26 d3 35 96 fc    13238 
1158 03d3 000c 0002 1098 1ff1 20 11010000 LSR   <$00               04 00 06 01 06    13241 
115a 03d3 000c 0002 1098 1ff1 20 11010001 ROR   <$01               06 01 06 02 06    13247 
115c 03d3 000c 0002 1098 1ff1 20 11011001 ROR   <$02               06 02 06 03 dc    13253 
115e 03d3 000c 0002 1098 1ff1 20 11011000 ROR   <$03               06 03 dc 00 10    13259 
1160 03d3 000c 0002 1098 1ff1 20 11010100 LDD   <$00               dc 00 10 a3 c4    13265 
1162 07ff 000c 0002 1098 1ff1 20 11010000 CMPD  ,U                 10 a3 c4 25 09    13270 
1165 07ff 000c 0002 1098 1ff1 20 11010000 BCS   $1170              25 09 22 18 dc    13277 
1167 07ff 000c 0002 1098 1ff1 20 11010000 BHI   $1181              22 18 dc 02 10    13280 
1181 07ff 000c 0002 1098 1ff1 20 11010000 LEAX  -$1,X              30 1f 26 d3 35    13283 
1183 07ff 000b 0002 1098 1ff1 20 11010000 BNE   $1158              26 d3 35 96 fc    13288 
1158 07ff 000b 0002 1098 1ff1 20 11010000 LSR   <$00               04 00 06 01 06    13291 
115a 07ff 000b 0002 1098 1ff1 20 11010001 ROR   <$01               06 01 06 02 06    13297 
115c 07ff 000b 0002 1098 1ff1 20 11011001 ROR   <$02               06 02 06 03 dc    13303 
115e 07ff 000b 0002 1098 1ff1 20 11011000 ROR   <$03               06 03 dc 00 10    13309 
1160 07ff 000b 0002 1098 1ff1 20 11010100 LDD   <$00               dc 00 10 a3 c4    13315 
1162 03ff 000b 0002 1098 1ff1 20 11010000 CMPD  ,U                 10 a3 c4 25 09    13320 
1165 03ff 000b 0002 1098 1ff1 20 11010000 BCS   $1170              25 09 22 18 dc    13327 
1167 03ff 000b 0002 1098 1ff1 20 11010000 BHI   $1181              22 18 dc 02 10    13330 
1181 03ff 000b 0002 1098 1ff1 20 11010000 LEAX  -$1,X              30 1f 26 d3 35    13333 
1183 03ff 000a 0002 1098 1ff1 20 11010000 BNE   $1158              26 d3 35 96 fc    13338 
1158 03ff 000a 0002 1098 1ff1 20 11010000 LSR   <$00               04 00 06 01 06    13341 
115a 03ff 000a 0002 1098 1ff1 20 11010001 ROR   <$01               06 01 06 02 06    13347 
115c 03ff 000a 0002 1098 1ff1 20 11011001 ROR   <$02               06 02 06 03 dc    13353 
115e 03ff 000a 0002 1098 1ff1 20 11011000 ROR   <$03               06 03 dc 00 10    13359 
1160 03ff 000a 0002 1098 1ff1 20 11010100 LDD   <$00               dc 00 10 a3 c4    13365 
1162 01ff 000a 0002 1098 1ff1 20 11010000 CMPD  ,U                 10 a3 c4 25 09    13370 
1165 01ff 000a 0002 1098 1ff1 20 11011001 BCS   $1170              25 09 22 18 dc    13377 
1170 01ff 000a 0002 1098 1ff1 20 11011001 LDD   $2,U               ec 42 93 02 ed    13380 
1172 47b4 000a 0002 1098 1ff1 20 11010001 SUBD  <$02               93 02 ed 42 ec    13386 
1174 65b4 000a 0002 1098 1ff1 20 11010001 STD   $2,U               ed 42 ec c4 24    13392 
1176 65b4 000a 0002 1098 1ff1 20 11010001 LDD   ,U                 ec c4 24 03 83    13398 
1178 03d3 000a 0002 1098 1ff1 20 11010001 BCC   $117D              24 03 83 00 01    13403 
117a 03d3 000a 0002 1098 1ff1 20 11010001 SUBD  #$0001             83 00 01 93 00    13406 
117d 03d2 000a 0002 1098 1ff1 20 11010000 SUBD  <$00               93 00 ed c4 30    13410 
117f 01d3 000a 0002 1098 1ff1 20 11010000 STD   ,U                 ed c4 30 1f 26    13416 
1181 01d3 000a 0002 1098 1ff1 20 11010000 LEAX  -$1,X              30 1f 26 d3 35    13421 
1183 01d3 0009 0002 1098 1ff1 20 11010000 BNE   $1158              26 d3 35 96 fc    13426 
1158 01d3 0009 0002 1098 1ff1 20 11010000 LSR   <$00               04 00 06 01 06    13429 
115a 01d3 0009 0002 1098 1ff1 20 11010101 ROR   <$01               06 01 06 02 06    13435 
115c 01d3 0009 0002 1098 1ff1 20 11011001 ROR   <$02               06 02 06 03 dc    13441 
115e 01d3 0009 0002 1098 1ff1 20 11011000 ROR   <$03               06 03 dc 00 10    13447 
1160 01d3 0009 0002 1098 1ff1 20 11010100 LDD   <$00               dc 00 10 a3 c4    13453 
1162 00ff 0009 0002 1098 1ff1 20 11010000 CMPD  ,U                 10 a3 c4 25 09    13458 
1165 00ff 0009 0002 1098 1ff1 20 11011001 BCS   $1170              25 09 22 18 dc    13465 
1170 00ff 0009 0002 1098 1ff1 20 11011001 LDD   $2,U               ec 42 93 02 ed    13468 
1172 65b4 0009 0002 1098 1ff1 20 11010001 SUBD  <$02               93 02 ed 42 ec    13474 
1174 74b4 0009 0002 1098 1ff1 20 11010001 STD   $2,U               ed 42 ec c4 24    13480 
1176 74b4 0009 0002 1098 1ff1 20 11010001 LDD   ,U                 ec c4 24 03 83    13486 
1178 01d3 0009 0002 1098 1ff1 20 11010001 BCC   $117D              24 03 83 00 01    13491 
117a 01d3 0009 0002 1098 1ff1 20 11010001 SUBD  #$0001             83 00 01 93 00    13494 
117d 01d2 0009 0002 1098 1ff1 20 11010000 SUBD  <$00               93 00 ed c4 30    13498 
117f 00d3 0009 0002 1098 1ff1 20 11010000 STD   ,U                 ed c4 30 1f 26    13504 
1181 00d3 0009 0002 1098 1ff1 20 11010000 LEAX  -$1,X              30 1f 26 d3 35    13509 
1183 00d3 0008 0002 1098 1ff1 20 11010000 BNE   $1158              26 d3 35 96 fc    13514 
1158 00d3 0008 0002 1098 1ff1 20 11010000 LSR   <$00               04 00 06 01 06    13517 
115a 00d3 0008 0002 1098 1ff1 20 11010100 ROR   <$01               06 01 06 02 06    13523 
115c 00d3 0008 0002 1098 1ff1 20 11010001 ROR   <$02               06 02 06 03 dc    13529 
115e 00d3 0008 0002 1098 1ff1 20 11011001 ROR   <$03               06 03 dc 00 10    13535 
1160 00d3 0008 0002 1098 1ff1 20 11011000 LDD   <$00               dc 00 10 a3 c4    13541 
1162 007f 0008 0002 1098 1ff1 20 11010000 CMPD  ,U                 10 a3 c4 25 09    13546 
1165 007f 0008 0002 1098 1ff1 20 11011001 BCS   $1170              25 09 22 18 dc    13553 
1170 007f 0008 0002 1098 1ff1 20 11011001 LDD   $2,U               ec 42 93 02 ed    13556 
1172 74b4 0008 0002 1098 1ff1 20 11010001 SUBD  <$02               93 02 ed 42 ec    13562 
1174 7c34 0008 0002 1098 1ff1 20 11010001 STD   $2,U               ed 42 ec c4 24    13568 
1176 7c34 0008 0002 1098 1ff1 20 11010001 LDD   ,U                 ec c4 24 03 83    13574 
1178 00d3 0008 0002 1098 1ff1 20 11010001 BCC   $117D              24 03 83 00 01    13579 
117a 00d3 0008 0002 1098 1ff1 20 11010001 SUBD  #$0001             83 00 01 93 00    13582 
117d 00d2 0008 0002 1098 1ff1 20 11010000 SUBD  <$00               93 00 ed c4 30    13586 
117f 0053 0008 0002 1098 1ff1 20 11010000 STD   ,U                 ed c4 30 1f 26    13592 
1181 0053 0008 0002 1098 1ff1 20 11010000 LEAX  -$1,X              30 1f 26 d3 35    13597 
1183 0053 0007 0002 1098 1ff1 20 11010000 BNE   $1158              26 d3 35 96 fc    13602 
1158 0053 0007 0002 1098 1ff1 20 11010000 LSR   <$00               04 00 06 01 06    13605 
115a 0053 0007 0002 1098 1ff1 20 11010100 ROR   <$01               06 01 06 02 06    13611 
115c 0053 0007 0002 1098 1ff1 20 11010001 ROR   <$02               06 02 06 03 dc    13617 
115e 0053 0007 0002 1098 1ff1 20 11011000 ROR   <$03               06 03 dc 00 10    13623 
1160 0053 0007 0002 1098 1ff1 20 11010000 LDD   <$00               dc 00 10 a3 c4    13629 
1162 003f 0007 0002 1098 1ff1 20 11010000 CMPD  ,U                 10 a3 c4 25 09    13634 
1165 003f 0007 0002 1098 1ff1 20 11011001 BCS   $1170              25 09 22 18 dc    13641 
1170 003f 0007 0002 1098 1ff1 20 11011001 LDD   $2,U               ec 42 93 02 ed    13644 
1172 7c34 0007 0002 1098 1ff1 20 11010001 SUBD  <$02               93 02 ed 42 ec    13650 
1174 7ff4 0007 0002 1098 1ff1 20 11010001 STD   $2,U               ed 42 ec c4 24    13656 
1176 7ff4 0007 0002 1098 1ff1 20 11010001 LDD   ,U                 ec c4 24 03 83    13662 
1178 0053 0007 0002 1098 1ff1 20 11010001 BCC   $117D              24 03 83 00 01    13667 
117a 0053 0007 0002 1098 1ff1 20 11010001 SUBD  #$0001             83 00 01 93 00    13670 
117d 0052 0007 0002 1098 1ff1 20 11010000 SUBD  <$00               93 00 ed c4 30    13674 
117f 0013 0007 0002 1098 1ff1 20 11010000 STD   ,U                 ed c4 30 1f 26    13680 
1181 0013 0007 0002 1098 1ff1 20 11010000 LEAX  -$1,X              30 1f 26 d3 35    13685 
1183 0013 0006 0002 1098 1ff1 20 11010000 BNE   $1158              26 d3 35 96 fc    13690 
1158 0013 0006 0002 1098 1ff1 20 11010000 LSR   <$00               04 00 06 01 06    13693 
115a 0013 0006 0002 1098 1ff1 20 11010100 ROR   <$01               06 01 06 02 06    13699 
115c 0013 0006 0002 1098 1ff1 20 11010001 ROR   <$02               06 02 06 03 dc    13705 
115e 0013 0006 0002 1098 1ff1 20 11011000 ROR   <$03               06 03 dc 00 10    13711 
1160 0013 0006 0002 1098 1ff1 20 11010000 LDD   <$00               dc 00 10 a3 c4    13717 
1162 001f 0006 0002 1098 1ff1 20 11010000 CMPD  ,U                 10 a3 c4 25 09    13722 
1165 001f 0006 0002 1098 1ff1 20 11010000 BCS   $1170              25 09 22 18 dc    13729 
1167 001f 0006 0002 1098 1ff1 20 11010000 BHI   $1181              22 18 dc 02 10    13732 
1181 001f 0006 0002 1098 1ff1 20 11010000 LEAX  -$1,X              30 1f 26 d3 35    13735 
1183 001f 0005 0002 1098 1ff1 20 11010000 BNE   $1158              26 d3 35 96 fc    13740 
1158 001f 0005 0002 1098 1ff1 20 11010000 LSR   <$00               04 00 06 01 06    13743 
115a 001f 0005 0002 1098 1ff1 20 11010100 ROR   <$01               06 01 06 02 06    13749 
115c 001f 0005 0002 1098 1ff1 20 11010001 ROR   <$02               06 02 06 03 dc    13755 
115e 001f 0005 0002 1098 1ff1 20 11011000 ROR   <$03               06 03 dc 00 10    13761 
1160 001f 0005 0002 1098 1ff1 20 11010000 LDD   <$00               dc 00 10 a3 c4    13767 
1162 000f 0005 0002 1098 1ff1 20 11010000 CMPD  ,U                 10 a3 c4 25 09    13772 
1165 000f 0005 0002 1098 1ff1 20 11011001 BCS   $1170              25 09 22 18 dc    13779 
1170 000f 0005 0002 1098 1ff1 20 11011001 LDD   $2,U               ec 42 93 02 ed    13782 
1172 7ff4 0005 0002 1098 1ff1 20 11010001 SUBD  <$02               93 02 ed 42 ec    13788 
1174 80e4 0005 0002 1098 1ff1 20 11011011 STD   $2,U               ed 42 ec c4 24    13794 
1176 80e4 0005 0002 1098 1ff1 20 11011001 LDD   ,U                 ec c4 24 03 83    13800 
1178 0013 0005 0002 1098 1ff1 20 11010001 BCC   $117D              24 03 83 00 01    13805 
117a 0013 0005 0002 1098 1ff1 20 11010001 SUBD  #$0001             83 00 01 93 00    13808 
117d 0012 0005 0002 1098 1ff1 20 11010000 SUBD  <$00               93 00 ed c4 30    13812 
117f 0003 0005 0002 1098 1ff1 20 11010000 STD   ,U                 ed c4 30 1f 26    13818 
1181 0003 0005 0002 1098 1ff1 20 11010000 LEAX  -$1,X              30 1f 26 d3 35    13823 
1183 0003 0004 0002 1098 1ff1 20 11010000 BNE   $1158              26 d3 35 96 fc    13828 
1158 0003 0004 0002 1098 1ff1 20 11010000 LSR   <$00               04 00 06 01 06    13831 
115a 0003 0004 0002 1098 1ff1 20 11010100 ROR   <$01               06 01 06 02 06    13837 
115c 0003 0004 0002 1098 1ff1 20 11010001 ROR   <$02               06 02 06 03 dc    13843 
115e 0003 0004 0002 1098 1ff1 20 11011001 ROR   <$03               06 03 dc 00 10    13849 
1160 0003 0004 0002 1098 1ff1 20 11011000 LDD   <$00               dc 00 10 a3 c4    13855 
1162 0007 0004 0002 1098 1ff1 20 11010000 CMPD  ,U                 10 a3 c4 25 09    13860 
1165 0007 0004 0002 1098 1ff1 20 11010000 BCS   $1170              25 09 22 18 dc    13867 
1167 0007 0004 0002 1098 1ff1 20 11010000 BHI   $1181              22 18 dc 02 10    13870 
1181 0007 0004 0002 1098 1ff1 20 11010000 LEAX  -$1,X              30 1f 26 d3 35    13873 
1183 0007 0003 0002 1098 1ff1 20 11010000 BNE   $1158              26 d3 35 96 fc    13878 
1158 0007 0003 0002 1098 1ff1 20 11010000 LSR   <$00               04 00 06 01 06    13881 
115a 0007 0003 0002 1098 1ff1 20 11010100 ROR   <$01               06 01 06 02 06    13887 
115c 0007 0003 0002 1098 1ff1 20 11010001 ROR   <$02               06 02 06 03 dc    13893 
115e 0007 0003 0002 1098 1ff1 20 11011001 ROR   <$03               06 03 dc 00 10    13899 
1160 0007 0003 0002 1098 1ff1 20 11011000 LDD   <$00               dc 00 10 a3 c4    13905 
1162 0003 0003 0002 1098 1ff1 20 11010000 CMPD  ,U                 10 a3 c4 25 09    13910 
1165 0003 0003 0002 1098 1ff1 20 11010100 BCS   $1170              25 09 22 18 dc    13917 
1167 0003 0003 0002 1098 1ff1 20 11010100 BHI   $1181              22 18 dc 02 10    13920 
1169 0003 0003 0002 1098 1ff1 20 11010100 LDD   <$02               dc 02 10 a3 42    13923 
116b ffc4 0003 0002 1098 1ff1 20 11011000 CMPD  $2,U               10 a3 42 22 11    13928 
116e ffc4 0003 0002 1098 1ff1 20 11010000 BHI   $1181              22 11 ec 42 93    13936 
1181 ffc4 0003 0002 1098 1ff1 20 11010000 LEAX  -$1,X              30 1f 26 d3 35    13939 
1183 ffc4 0002 0002 1098 1ff1 20 11010000 BNE   $1158              26 d3 35 96 fc    13944 
1158 ffc4 0002 0002 1098 1ff1 20 11010000 LSR   <$00               04 00 06 01 06    13947 
115a ffc4 0002 0002 1098 1ff1 20 11010100 ROR   <$01               06 01 06 02 06    13953 
115c ffc4 0002 0002 1098 1ff1 20 11010001 ROR   <$02               06 02 06 03 dc    13959 
115e ffc4 0002 0002 1098 1ff1 20 11011001 ROR   <$03               06 03 dc 00 10    13965 
1160 ffc4 0002 0002 1098 1ff1 20 11011000 LDD   <$00               dc 00 10 a3 c4    13971 
1162 0001 0002 0002 1098 1ff1 20 11010000 CMPD  ,U                 10 a3 c4 25 09    13976 
1165 0001 0002 0002 1098 1ff1 20 11011001 BCS   $1170              25 09 22 18 dc    13983 
1170 0001 0002 0002 1098 1ff1 20 11011001 LDD   $2,U               ec 42 93 02 ed    13986 
1172 80e4 0002 0002 1098 1ff1 20 11011001 SUBD  <$02               93 02 ed 42 ec    13992 
1174 8102 0002 0002 1098 1ff1 20 11011001 STD   $2,U               ed 42 ec c4 24    13998 
1176 8102 0002 0002 1098 1ff1 20 11011001 LDD   ,U                 ec c4 24 03 83    14004 
1178 0003 0002 0002 1098 1ff1 20 11010001 BCC   $117D              24 03 83 00 01    14009 
117a 0003 0002 0002 1098 1ff1 20 11010001 SUBD  #$0001             83 00 01 93 00    14012 
117d 0002 0002 0002 1098 1ff1 20 11010000 SUBD  <$00               93 00 ed c4 30    14016 
117f 0001 0002 0002 1098 1ff1 20 11010000 STD   ,U                 ed c4 30 1f 26    14022 
1181 0001 0002 0002 1098 1ff1 20 11010000 LEAX  -$1,X              30 1f 26 d3 35    14027 
1183 0001 0001 0002 1098 1ff1 20 11010000 BNE   $1158              26 d3 35 96 fc    14032 
1158 0001 0001 0002 1098 1ff1 20 11010000 LSR   <$00               04 00 06 01 06    14035 
115a 0001 0001 0002 1098 1ff1 20 11010100 ROR   <$01               06 01 06 02 06    14041 
115c 0001 0001 0002 1098 1ff1 20 11010101 ROR   <$02               06 02 06 03 dc    14047 
115e 0001 0001 0002 1098 1ff1 20 11011001 ROR   <$03               06 03 dc 00 10    14053 
1160 0001 0001 0002 1098 1ff1 20 11011000 LDD   <$00               dc 00 10 a3 c4    14059 
1162 0000 0001 0002 1098 1ff1 20 11010100 CMPD  ,U                 10 a3 c4 25 09    14064 
1165 0000 0001 0002 1098 1ff1 20 11011001 BCS   $1170              25 09 22 18 dc    14071 
1170 0000 0001 0002 1098 1ff1 20 11011001 LDD   $2,U               ec 42 93 02 ed    14074 
1172 8102 0001 0002 1098 1ff1 20 11011001 SUBD  <$02               93 02 ed 42 ec    14080 
1174 8111 0001 0002 1098 1ff1 20 11011001 STD   $2,U               ed 42 ec c4 24    14086 
1176 8111 0001 0002 1098 1ff1 20 11011001 LDD   ,U                 ec c4 24 03 83    14092 
1178 0001 0001 0002 1098 1ff1 20 11010001 BCC   $117D              24 03 83 00 01    14097 
117a 0001 0001 0002 1098 1ff1 20 11010001 SUBD  #$0001             83 00 01 93 00    14100 
117d 0000 0001 0002 1098 1ff1 20 11010100 SUBD  <$00               93 00 ed c4 30    14104 
117f 0000 0001 0002 1098 1ff1 20 11010100 STD   ,U                 ed c4 30 1f 26    14110 
1181 0000 0001 0002 1098 1ff1 20 11010100 LEAX  -$1,X              30 1f 26 d3 35    14115 
1183 0000 0000 0002 1098 1ff1 20 11010100 BNE   $1158              26 d3 35 96 fc    14120 
1185 0000 0000 0002 1098 1ff1 20 11010100 PULS  A,B,X,PC           35 96 fc 10 a0    14123 
1125 0036 fff1 0002 1098 1ff7 20 11010100 LDU   #$109C             ce 10 9c 8d 02    14134 
1128 0036 fff1 0002 109c 1ff7 20 11010000 BSR   $112C              8d 02 35 d0 34    14137 
112c 0036 fff1 0002 109c 1ff5 20 11010000 PSHS  X,B,A              34 16 9f 02 8e    14144 
112e 0036 fff1 0002 109c 1ff1 20 11010000 STX   <$02               9f 02 8e 00 00    14153 
1130 0036 fff1 0002 109c 1ff1 20 11011000 LDX   #$0000             8e 00 00 9f 00    14158 
1133 0036 0000 0002 109c 1ff1 20 11010100 STX   <$00               9f 00 ec c4 10    14161 
1135 0036 0000 0002 109c 1ff1 20 11010100 LDD   ,U                 ec c4 10 93 00    14166 
1137 e486 0000 0002 109c 1ff1 20 11011000 CMPD  <$00               10 93 00 22 0b    14171 
113a e486 0000 0002 109c 1ff1 20 11011000 BHI   $1147              22 0b 25 15 ec    14178 
1147 e486 0000 0002 109c 1ff1 20 11011000 ASL   <$03               08 03 09 02 09    14181 
1149 e486 0000 0002 109c 1ff1 20 11011001 ROL   <$02               09 02 09 01 09    14187 
114b e486 0000 0002 109c 1ff1 20 11011001 ROL   <$01               09 01 09 00 30    14193 
114d e486 0000 0002 109c 1ff1 20 11010000 ROL   <$00               09 00 30 01 20    14199 
114f e486 0000 0002 109c 1ff1 20 11010100 LEAX  $1,X               30 01 20 e2 8c    14205 
1151 e486 0001 0002 109c 1ff1 20 11010000 BRA   $1135              20 e2 8c 00 00    14210 
1135 e486 0001 0002 109c 1ff1 20 11010000 LDD   ,U                 ec c4 10 93 00    14213 
1137 e486 0001 0002 109c 1ff1 20 11011000 CMPD  <$00               10 93 00 22 0b    14218 
113a e486 0001 0002 109c 1ff1 20 11011000 BHI   $1147              22 0b 25 15 ec    14225 
1147 e486 0001 0002 109c 1ff1 20 11011000 ASL   <$03               08 03 09 02 09    14228 
1149 e486 0001 0002 109c 1ff1 20 11011001 ROL   <$02               09 02 09 01 09    14234 
114b e486 0001 0002 109c 1ff1 20 11011001 ROL   <$01               09 01 09 00 30    14240 
114d e486 0001 0002 109c 1ff1 20 11010000 ROL   <$00               09 00 30 01 20    14246 
114f e486 0001 0002 109c 1ff1 20 11010100 LEAX  $1,X               30 01 20 e2 8c    14252 
1151 e486 0002 0002 109c 1ff1 20 11010000 BRA   $1135              20 e2 8c 00 00    14257 
1135 e486 0002 0002 109c 1ff1 20 11010000 LDD   ,U                 ec c4 10 93 00    14260 
1137 e486 0002 0002 109c 1ff1 20 11011000 CMPD  <$00               10 93 00 22 0b    14265 
113a e486 0002 0002 109c 1ff1 20 11011000 BHI   $1147              22 0b 25 15 ec    14272 
1147 e486 0002 0002 109c 1ff1 20 11011000 ASL   <$03               08 03 09 02 09    14275 
1149 e486 0002 0002 109c 1ff1 20 11011001 ROL   <$02               09 02 09 01 09    14281 
114b e486 0002 0002 109c 1ff1 20 11011001 ROL   <$01               09 01 09 00 30    14287 
114d e486 0002 0002 109c 1ff1 20 11010000 ROL   <$00               09 00 30 01 20    14293 
114f e486 0002 0002 109c 1ff1 20 11010100 LEAX  $1,X               30 01 20 e2 8c    14299 
1151 e486 0003 0002 109c 1ff1 20 11010000 BRA   $1135              20 e2 8c 00 00    14304 
1135 e486 0003 0002 109c 1ff1 20 11010000 LDD   ,U                 ec c4 10 93 00    14307 
1137 e486 0003 0002 109c 1ff1 20 11011000 CMPD  <$00               10 93 00 22 0b    14312 
113a e486 0003 0002 109c 1ff1 20 11011000 BHI   $1147              22 0b 25 15 ec    14319 
1147 e486 0003 0002 109c 1ff1 20 11011000 ASL   <$03               08 03 09 02 09    14322 
1149 e486 0003 0002 109c 1ff1 20 11010011 ROL   <$02               09 02 09 01 09    14328 
114b e486 0003 0002 109c 1ff1 20 11011001 ROL   <$01               09 01 09 00 30    14334 
114d e486 0003 0002 109c 1ff1 20 11010000 ROL   <$00               09 00 30 01 20    14340 
114f e486 0003 0002 109c 1ff1 20 11010100 LEAX  $1,X               30 01 20 e2 8c    14346 
1151 e486 0004 0002 109c 1ff1 20 11010000 BRA   $1135              20 e2 8c 00 00    14351 
1135 e486 0004 0002 109c 1ff1 20 11010000 LDD   ,U                 ec c4 10 93 00    14354 
1137 e486 0004 0002 109c 1ff1 20 11011000 CMPD  <$00               10 93 00 22 0b    14359 
113a e486 0004 0002 109c 1ff1 20 11011000 BHI   $1147              22 0b 25 15 ec    14366 
1147 e486 0004 0002 109c 1ff1 20 11011000 ASL   <$03               08 03 09 02 09    14369 
1149 e486 0004 0002 109c 1ff1 20 11010000 ROL   <$02               09 02 09 01 09    14375 
114b e486 0004 0002 109c 1ff1 20 11011001 ROL   <$01               09 01 09 00 30    14381 
114d e486 0004 0002 109c 1ff1 20 11010000 ROL   <$00               09 00 30 01 20    14387 
114f e486 0004 0002 109c 1ff1 20 11010100 LEAX  $1,X               30 01 20 e2 8c    14393 
1151 e486 0005 0002 109c 1ff1 20 11010000 BRA   $1135              20 e2 8c 00 00    14398 
1135 e486 0005 0002 109c 1ff1 20 11010000 LDD   ,U                 ec c4 10 93 00    14401 
1137 e486 0005 0002 109c 1ff1 20 11011000 CMPD  <$00               10 93 00 22 0b    14406 
113a e486 0005 0002 109c 1ff1 20 11011000 BHI   $1147              22 0b 25 15 ec    14413 
1147 e486 0005 0002 109c 1ff1 20 11011000 ASL   <$03               08 03 09 02 09    14416 
1149 e486 0005 0002 109c 1ff1 20 11010000 ROL   <$02               09 02 09 01 09    14422 
114b e486 0005 0002 109c 1ff1 20 11011001 ROL   <$01               09 01 09 00 30    14428 
114d e486 0005 0002 109c 1ff1 20 11010000 ROL   <$00               09 00 30 01 20    14434 
114f e486 0005 0002 109c 1ff1 20 11010100 LEAX  $1,X               30 01 20 e2 8c    14440 
1151 e486 0006 0002 109c 1ff1 20 11010000 BRA   $1135              20 e2 8c 00 00    14445 
1135 e486 0006 0002 109c 1ff1 20 11010000 LDD   ,U                 ec c4 10 93 00    14448 
1137 e486 0006 0002 109c 1ff1 20 11011000 CMPD  <$00               10 93 00 22 0b    14453 
113a e486 0006 0002 109c 1ff1 20 11011000 BHI   $1147              22 0b 25 15 ec    14460 
1147 e486 0006 0002 109c 1ff1 20 11011000 ASL   <$03               08 03 09 02 09    14463 
1149 e486 0006 0002 109c 1ff1 20 11011010 ROL   <$02               09 02 09 01 09    14469 
114b e486 0006 0002 109c 1ff1 20 11011001 ROL   <$01               09 01 09 00 30    14475 
114d e486 0006 0002 109c 1ff1 20 11010000 ROL   <$00               09 00 30 01 20    14481 
114f e486 0006 0002 109c 1ff1 20 11010100 LEAX  $1,X               30 01 20 e2 8c    14487 
1151 e486 0007 0002 109c 1ff1 20 11010000 BRA   $1135              20 e2 8c 00 00    14492 
1135 e486 0007 0002 109c 1ff1 20 11010000 LDD   ,U                 ec c4 10 93 00    14495 
1137 e486 0007 0002 109c 1ff1 20 11011000 CMPD  <$00               10 93 00 22 0b    14500 
113a e486 0007 0002 109c 1ff1 20 11011000 BHI   $1147              22 0b 25 15 ec    14507 
1147 e486 0007 0002 109c 1ff1 20 11011000 ASL   <$03               08 03 09 02 09    14510 
1149 e486 0007 0002 109c 1ff1 20 11010111 ROL   <$02               09 02 09 01 09    14516 
114b e486 0007 0002 109c 1ff1 20 11011001 ROL   <$01               09 01 09 00 30    14522 
114d e486 0007 0002 109c 1ff1 20 11011010 ROL   <$00               09 00 30 01 20    14528 
114f e486 0007 0002 109c 1ff1 20 11010100 LEAX  $1,X               30 01 20 e2 8c    14534 
1151 e486 0008 0002 109c 1ff1 20 11010000 BRA   $1135              20 e2 8c 00 00    14539 
1135 e486 0008 0002 109c 1ff1 20 11010000 LDD   ,U                 ec c4 10 93 00    14542 
1137 e486 0008 0002 109c 1ff1 20 11011000 CMPD  <$00               10 93 00 22 0b    14547 
113a e486 0008 0002 109c 1ff1 20 11011000 BHI   $1147              22 0b 25 15 ec    14554 
1147 e486 0008 0002 109c 1ff1 20 11011000 ASL   <$03               08 03 09 02 09    14557 
1149 e486 0008 0002 109c 1ff1 20 11010100 ROL   <$02               09 02 09 01 09    14563 
114b e486 0008 0002 109c 1ff1 20 11011001 ROL   <$01               09 01 09 00 30    14569 
114d e486 0008 0002 109c 1ff1 20 11011001 ROL   <$00               09 00 30 01 20    14575 
114f e486 0008 0002 109c 1ff1 20 11010000 LEAX  $1,X               30 01 20 e2 8c    14581 
1151 e486 0009 0002 109c 1ff1 20 11010000 BRA   $1135              20 e2 8c 00 00    14586 
1135 e486 0009 0002 109c 1ff1 20 11010000 LDD   ,U                 ec c4 10 93 00    14589 
1137 e486 0009 0002 109c 1ff1 20 11011000 CMPD  <$00               10 93 00 22 0b    14594 
113a e486 0009 0002 109c 1ff1 20 11011000 BHI   $1147              22 0b 25 15 ec    14601 
1147 e486 0009 0002 109c 1ff1 20 11011000 ASL   <$03               08 03 09 02 09    14604 
1149 e486 0009 0002 109c 1ff1 20 11010100 ROL   <$02               09 02 09 01 09    14610 
114b e486 0009 0002 109c 1ff1 20 11011001 ROL   <$01               09 01 09 00 30    14616 
114d e486 0009 0002 109c 1ff1 20 11011001 ROL   <$00               09 00 30 01 20    14622 
114f e486 0009 0002 109c 1ff1 20 11010000 LEAX  $1,X               30 01 20 e2 8c    14628 
1151 e486 000a 0002 109c 1ff1 20 11010000 BRA   $1135              20 e2 8c 00 00    14633 
1135 e486 000a 0002 109c 1ff1 20 11010000 LDD   ,U                 ec c4 10 93 00    14636 
1137 e486 000a 0002 109c 1ff1 20 11011000 CMPD  <$00               10 93 00 22 0b    14641 
113a e486 000a 0002 109c 1ff1 20 11011000 BHI   $1147              22 0b 25 15 ec    14648 
1147 e486 000a 0002 109c 1ff1 20 11011000 ASL   <$03               08 03 09 02 09    14651 
1149 e486 000a 0002 109c 1ff1 20 11010100 ROL   <$02               09 02 09 01 09    14657 
114b e486 000a 0002 109c 1ff1 20 11011001 ROL   <$01               09 01 09 00 30    14663 
114d e486 000a 0002 109c 1ff1 20 11011001 ROL   <$00               09 00 30 01 20    14669 
114f e486 000a 0002 109c 1ff1 20 11010000 LEAX  $1,X               30 01 20 e2 8c    14675 
1151 e486 000b 0002 109c 1ff1 20 11010000 BRA   $1135              20 e2 8c 00 00    14680 
1135 e486 000b 0002 109c 1ff1 20 11010000 LDD   ,U                 ec c4 10 93 00    14683 
1137 e486 000b 0002 109c 1ff1 20 11011000 CMPD  <$00               10 93 00 22 0b    14688 
113a e486 000b 0002 109c 1ff1 20 11011000 BHI   $1147              22 0b 25 15 ec    14695 
1147 e486 000b 0002 109c 1ff1 20 11011000 ASL   <$03               08 03 09 02 09    14698 
1149 e486 000b 0002 109c 1ff1 20 11010100 ROL   <$02               09 02 09 01 09    14704 
114b e486 000b 0002 109c 1ff1 20 11010011 ROL   <$01               09 01 09 00 30    14710 
114d e486 000b 0002 109c 1ff1 20 11011001 ROL   <$00               09 00 30 01 20    14716 
114f e486 000b 0002 109c 1ff1 20 11010000 LEAX  $1,X               30 01 20 e2 8c    14722 
1151 e486 000c 0002 109c 1ff1 20 11010000 BRA   $1135              20 e2 8c 00 00    14727 
1135 e486 000c 0002 109c 1ff1 20 11010000 LDD   ,U                 ec c4 10 93 00    14730 
1137 e486 000c 0002 109c 1ff1 20 11011000 CMPD  <$00               10 93 00 22 0b    14735 
113a e486 000c 0002 109c 1ff1 20 11011000 BHI   $1147              22 0b 25 15 ec    14742 
1147 e486 000c 0002 109c 1ff1 20 11011000 ASL   <$03               08 03 09 02 09    14745 
1149 e486 000c 0002 109c 1ff1 20 11010100 ROL   <$02               09 02 09 01 09    14751 
114b e486 000c 0002 109c 1ff1 20 11010000 ROL   <$01               09 01 09 00 30    14757 
114d e486 000c 0002 109c 1ff1 20 11011001 ROL   <$00               09 00 30 01 20    14763 
114f e486 000c 0002 109c 1ff1 20 11010000 LEAX  $1,X               30 01 20 e2 8c    14769 
1151 e486 000d 0002 109c 1ff1 20 11010000 BRA   $1135              20 e2 8c 00 00    14774 
1135 e486 000d 0002 109c 1ff1 20 11010000 LDD   ,U                 ec c4 10 93 00    14777 
1137 e486 000d 0002 109c 1ff1 20 11011000 CMPD  <$00               10 93 00 22 0b    14782 
113a e486 000d 0002 109c 1ff1 20 11011000 BHI   $1147              22 0b 25 15 ec    14789 
1147 e486 000d 0002 109c 1ff1 20 11011000 ASL   <$03               08 03 09 02 09    14792 
1149 e486 000d 0002 109c 1ff1 20 11010100 ROL   <$02               09 02 09 01 09    14798 
114b e486 000d 0002 109c 1ff1 20 11010000 ROL   <$01               09 01 09 00 30    14804 
114d e486 000d 0002 109c 1ff1 20 11011001 ROL   <$00               09 00 30 01 20    14810 
114f e486 000d 0002 109c 1ff1 20 11010000 LEAX  $1,X               30 01 20 e2 8c    14816 
1151 e486 000e 0002 109c 1ff1 20 11010000 BRA   $1135              20 e2 8c 00 00    14821 
1135 e486 000e 0002 109c 1ff1 20 11010000 LDD   ,U                 ec c4 10 93 00    14824 
1137 e486 000e 0002 109c 1ff1 20 11011000 CMPD  <$00               10 93 00 22 0b    14829 
113a e486 000e 0002 109c 1ff1 20 11011000 BHI   $1147              22 0b 25 15 ec    14836 
1147 e486 000e 0002 109c 1ff1 20 11011000 ASL   <$03               08 03 09 02 09    14839 
1149 e486 000e 0002 109c 1ff1 20 11010100 ROL   <$02               09 02 09 01 09    14845 
114b e486 000e 0002 109c 1ff1 20 11011010 ROL   <$01               09 01 09 00 30    14851 
114d e486 000e 0002 109c 1ff1 20 11011001 ROL   <$00               09 00 30 01 20    14857 
114f e486 000e 0002 109c 1ff1 20 11010000 LEAX  $1,X               30 01 20 e2 8c    14863 
1151 e486 000f 0002 109c 1ff1 20 11010000 BRA   $1135              20 e2 8c 00 00    14868 
1135 e486 000f 0002 109c 1ff1 20 11010000 LDD   ,U                 ec c4 10 93 00    14871 
1137 e486 000f 0002 109c 1ff1 20 11011000 CMPD  <$00               10 93 00 22 0b    14876 
113a e486 000f 0002 109c 1ff1 20 11010010 BHI   $1147              22 0b 25 15 ec    14883 
1147 e486 000f 0002 109c 1ff1 20 11010010 ASL   <$03               08 03 09 02 09    14886 
1149 e486 000f 0002 109c 1ff1 20 11010100 ROL   <$02               09 02 09 01 09    14892 
114b e486 000f 0002 109c 1ff1 20 11010111 ROL   <$01               09 01 09 00 30    14898 
114d e486 000f 0002 109c 1ff1 20 11011001 ROL   <$00               09 00 30 01 20    14904 
114f e486 000f 0002 109c 1ff1 20 11011010 LEAX  $1,X               30 01 20 e2 8c    14910 
1151 e486 0010 0002 109c 1ff1 20 11011010 BRA   $1135              20 e2 8c 00 00    14915 
1135 e486 0010 0002 109c 1ff1 20 11011010 LDD   ,U                 ec c4 10 93 00    14918 
1137 e486 0010 0002 109c 1ff1 20 11011000 CMPD  <$00               10 93 00 22 0b    14923 
113a e486 0010 0002 109c 1ff1 20 11011001 BHI   $1147              22 0b 25 15 ec    14930 
113c e486 0010 0002 109c 1ff1 20 11011001 BCS   $1153              25 15 ec 42 10    14933 
1153 e486 0010 0002 109c 1ff1 20 11011001 CMPX  #$0000             8c 00 00 27 2d    14936 
1156 e486 0010 0002 109c 1ff1 20 11010000 BEQ   $1185              27 2d 04 00 06    14940 
1158 e486 0010 0002 109c 1ff1 20 11010000 LSR   <$00               04 00 06 01 06    14943 
115a e486 0010 0002 109c 1ff1 20 11010001 ROR   <$01               06 01 06 02 06    14949 
115c e486 0010 0002 109c 1ff1 20 11011001 ROR   <$02               06 02 06 03 dc    14955 
115e e486 0010 0002 109c 1ff1 20 11011000 ROR   <$03               06 03 dc 00 10    14961 
1160 e486 0010 0002 109c 1ff1 20 11010100 LDD   <$00               dc 00 10 a3 c4    14967 
1162 7ff8 0010 0002 109c 1ff1 20 11010000 CMPD  ,U                 10 a3 c4 25 09    14972 
1165 7ff8 0010 0002 109c 1ff1 20 11011011 BCS   $1170              25 09 22 18 dc    14979 
1170 7ff8 0010 0002 109c 1ff1 20 11011011 LDD   $2,U               ec 42 93 02 ed    14982 
1172 d2d5 0010 0002 109c 1ff1 20 11011001 SUBD  <$02               93 02 ed 42 ec    14988 
1174 52d5 0010 0002 109c 1ff1 20 11010000 STD   $2,U               ed 42 ec c4 24    14994 
1176 52d5 0010 0002 109c 1ff1 20 11010000 LDD   ,U                 ec c4 24 03 83    15000 
1178 e486 0010 0002 109c 1ff1 20 11011000 BCC   $117D              24 03 83 00 01    15005 
117d e486 0010 0002 109c 1ff1 20 11011000 SUBD  <$00               93 00 ed c4 30    15008 
117f 648e 0010 0002 109c 1ff1 20 11010010 STD   ,U                 ed c4 30 1f 26    15014 
1181 648e 0010 0002 109c 1ff1 20 11010000 LEAX  -$1,X              30 1f 26 d3 35    15019 
1183 648e 000f 0002 109c 1ff1 20 11010000 BNE   $1158              26 d3 35 96 fc    15024 
1158 648e 000f 0002 109c 1ff1 20 11010000 LSR   <$00               04 00 06 01 06    15027 
115a 648e 000f 0002 109c 1ff1 20 11010001 ROR   <$01               06 01 06 02 06    15033 
115c 648e 000f 0002 109c 1ff1 20 11011000 ROR   <$02               06 02 06 03 dc    15039 
115e 648e 000f 0002 109c 1ff1 20 11010000 ROR   <$03               06 03 dc 00 10    15045 
1160 648e 000f 0002 109c 1ff1 20 11010100 LDD   <$00               dc 00 10 a3 c4    15051 
1162 3ffc 000f 0002 109c 1ff1 20 11010000 CMPD  ,U                 10 a3 c4 25 09    15056 
1165 3ffc 000f 0002 109c 1ff1 20 11011001 BCS   $1170              25 09 22 18 dc    15063 
1170 3ffc 000f 0002 109c 1ff1 20 11011001 LDD   $2,U               ec 42 93 02 ed    15066 
1172 52d5 000f 0002 109c 1ff1 20 11010001 SUBD  <$02               93 02 ed 42 ec    15072 
1174 12d5 000f 0002 109c 1ff1 20 11010000 STD   $2,U               ed 42 ec c4 24    15078 
1176 12d5 000f 0002 109c 1ff1 20 11010000 LDD   ,U                 ec c4 24 03 83    15084 
1178 648e 000f 0002 109c 1ff1 20 11010000 BCC   $117D              24 03 83 00 01    15089 
117d 648e 000f 0002 109c 1ff1 20 11010000 SUBD  <$00               93 00 ed c4 30    15092 
117f 2492 000f 0002 109c 1ff1 20 11010000 STD   ,U                 ed c4 30 1f 26    15098 
1181 2492 000f 0002 109c 1ff1 20 11010000 LEAX  -$1,X              30 1f 26 d3 35    15103 
1183 2492 000e 0002 109c 1ff1 20 11010000 BNE   $1158              26 d3 35 96 fc    15108 
1158 2492 000e 0002 109c 1ff1 20 11010000 LSR   <$00               04 00 06 01 06    15111 
115a 2492 000e 0002 109c 1ff1 20 11010001 ROR   <$01               06 01 06 02 06    15117 
115c 2492 000e 0002 109c 1ff1 20 11011000 ROR   <$02               06 02 06 03 dc    15123 
115e 2492 000e 0002 109c 1ff1 20 11010000 ROR   <$03               06 03 dc 00 10    15129 
1160 2492 000e 0002 109c 1ff1 20 11010100 LDD   <$00               dc 00 10 a3 c4    15135 
1162 1ffe 000e 0002 109c 1ff1 20 11010000 CMPD  ,U                 10 a3 c4 25 09    15140 
1165 1ffe 000e 0002 109c 1ff1 20 11011001 BCS   $1170              25 09 22 18 dc    15147 
1170 1ffe 000e 0002 109c 1ff1 20 11011001 LDD   $2,U               ec 42 93 02 ed    15150 
1172 12d5 000e 0002 109c 1ff1 20 11010001 SUBD  <$02               93 02 ed 42 ec    15156 
1174 f2d5 000e 0002 109c 1ff1 20 11011001 STD   $2,U               ed 42 ec c4 24    15162 
1176 f2d5 000e 0002 109c 1ff1 20 11011001 LDD   ,U                 ec c4 24 03 83    15168 
1178 2492 000e 0002 109c 1ff1 20 11010001 BCC   $117D              24 03 83 00 01    15173 
117a 2492 000e 0002 109c 1ff1 20 11010001 SUBD  #$0001             83 00 01 93 00    15176 
117d 2491 000e 0002 109c 1ff1 20 11010000 SUBD  <$00               93 00 ed c4 30    15180 
117f 0493 000e 0002 109c 1ff1 20 11010000 STD   ,U                 ed c4 30 1f 26    15186 
1181 0493 000e 0002 109c 1ff1 20 11010000 LEAX  -$1,X              30 1f 26 d3 35    15191 
1183 0493 000d 0002 109c 1ff1 20 11010000 BNE   $1158              26 d3 35 96 fc    15196 
1158 0493 000d 0002 109c 1ff1 20 11010000 LSR   <$00               04 00 06 01 06    15199 
115a 0493 000d 0002 109c 1ff1 20 11010001 ROR   <$01               06 01 06 02 06    15205 
115c 0493 000d 0002 109c 1ff1 20 11011000 ROR   <$02               06 02 06 03 dc    15211 
115e 0493 000d 0002 109c 1ff1 20 11010000 ROR   <$03               06 03 dc 00 10    15217 
1160 0493 000d 0002 109c 1ff1 20 11010100 LDD   <$00               dc 00 10 a3 c4    15223 
1162 0fff 000d 0002 109c 1ff1 20 11010000 CMPD  ,U                 10 a3 c4 25 09    15228 
1165 0fff 000d 0002 109c 1ff1 20 11010000 BCS   $1170              25 09 22 18 dc    15235 
1167 0fff 000d 0002 109c 1ff1 20 11010000 BHI   $1181              22 18 dc 02 10    15238 
1181 0fff 000d 0002 109c 1ff1 20 11010000 LEAX  -$1,X              30 1f 26 d3 35    15241 
1183 0fff 000c 0002 109c 1ff1 20 11010000 BNE   $1158              26 d3 35 96 fc    15246 
1158 0fff 000c 0002 109c 1ff1 20 11010000 LSR   <$00               04 00 06 01 06    15249 
115a 0fff 000c 0002 109c 1ff1 20 11010001 ROR   <$01               06 01 06 02 06    15255 
115c 0fff 000c 0002 109c 1ff1 20 11011001 ROR   <$02               06 02 06 03 dc    15261 
115e 0fff 000c 0002 109c 1ff1 20 11011000 ROR   <$03               06 03 dc 00 10    15267 
1160 0fff 000c 0002 109c 1ff1 20 11010100 LDD   <$00               dc 00 10 a3 c4    15273 
1162 07ff 000c 0002 109c 1ff1 20 11010000 CMPD  ,U                 10 a3 c4 25 09    15278 
1165 07ff 000c 0002 109c 1ff1 20 11010000 BCS   $1170              25 09 22 18 dc    15285 
1167 07ff 000c 0002 109c 1ff1 20 11010000 BHI   $1181              22 18 dc 02 10    15288 
1181 07ff 000c 0002 109c 1ff1 20 11010000 LEAX  -$1,X              30 1f 26 d3 35    15291 
1183 07ff 000b 0002 109c 1ff1 20 11010000 BNE   $1158              26 d3 35 96 fc    15296 
1158 07ff 000b 0002 109c 1ff1 20 11010000 LSR   <$00               04 00 06 01 06    15299 
115a 07ff 000b 0002 109c 1ff1 20 11010001 ROR   <$01               06 01 06 02 06    15305 
115c 07ff 000b 0002 109c 1ff1 20 11011001 ROR   <$02               06 02 06 03 dc    15311 
115e 07ff 000b 0002 109c 1ff1 20 11011000 ROR   <$03               06 03 dc 00 10    15317 
1160 07ff 000b 0002 109c 1ff1 20 11010100 LDD   <$00               dc 00 10 a3 c4    15323 
1162 03ff 000b 0002 109c 1ff1 20 11010000 CMPD  ,U                 10 a3 c4 25 09    15328 
1165 03ff 000b 0002 109c 1ff1 20 11011001 BCS   $1170              25 09 22 18 dc    15335 
1170 03ff 000b 0002 109c 1ff1 20 11011001 LDD   $2,U               ec 42 93 02 ed    15338 
1172 f2d5 000b 0002 109c 1ff1 20 11011001 SUBD  <$02               93 02 ed 42 ec    15344 
1174 2ed5 000b 0002 109c 1ff1 20 11010000 STD   $2,U               ed 42 ec c4 24    15350 
1176 2ed5 000b 0002 109c 1ff1 20 11010000 LDD   ,U                 ec c4 24 03 83    15356 
1178 0493 000b 0002 109c 1ff1 20 11010000 BCC   $117D              24 03 83 00 01    15361 
117d 0493 000b 0002 109c 1ff1 20 11010000 SUBD  <$00               93 00 ed c4 30    15364 
117f 0094 000b 0002 109c 1ff1 20 11010000 STD   ,U                 ed c4 30 1f 26    15370 
1181 0094 000b 0002 109c 1ff1 20 11010000 LEAX  -$1,X              30 1f 26 d3 35    15375 
1183 0094 000a 0002 109c 1ff1 20 11010000 BNE   $1158              26 d3 35 96 fc    15380 
1158 0094 000a 0002 109c 1ff1 20 11010000 LSR   <$00               04 00 06 01 06    15383 
115a 0094 000a 0002 109c 1ff1 20 11010001 ROR   <$01               06 01 06 02 06    15389 
115c 0094 000a 0002 109c 1ff1 20 11011001 ROR   <$02               06 02 06 03 dc    15395 
115e 0094 000a 0002 109c 1ff1 20 11011000 ROR   <$03               06 03 dc 00 10    15401 
1160 0094 000a 0002 109c 1ff1 20 11010100 LDD   <$00               dc 00 10 a3 c4    15407 
1162 01ff 000a 0002 109c 1ff1 20 11010000 CMPD  ,U                 10 a3 c4 25 09    15412 
1165 01ff 000a 0002 109c 1ff1 20 11010000 BCS   $1170              25 09 22 18 dc    15419 
1167 01ff 000a 0002 109c 1ff1 20 11010000 BHI   $1181              22 18 dc 02 10    15422 
1181 01ff 000a 0002 109c 1ff1 20 11010000 LEAX  -$1,X              30 1f 26 d3 35    15425 
1183 01ff 0009 0002 109c 1ff1 20 11010000 BNE   $1158              26 d3 35 96 fc    15430 
1158 01ff 0009 0002 109c 1ff1 20 11010000 LSR   <$00               04 00 06 01 06    15433 
115a 01ff 0009 0002 109c 1ff1 20 11010101 ROR   <$01               06 01 06 02 06    15439 
115c 01ff 0009 0002 109c 1ff1 20 11011001 ROR   <$02               06 02 06 03 dc    15445 
115e 01ff 0009 0002 109c 1ff1 20 11011000 ROR   <$03               06 03 dc 00 10    15451 
1160 01ff 0009 0002 109c 1ff1 20 11010100 LDD   <$00               dc 00 10 a3 c4    15457 
1162 00ff 0009 0002 109c 1ff1 20 11010000 CMPD  ,U                 10 a3 c4 25 09    15462 
1165 00ff 0009 0002 109c 1ff1 20 11010000 BCS   $1170              25 09 22 18 dc    15469 
1167 00ff 0009 0002 109c 1ff1 20 11010000 BHI   $1181              22 18 dc 02 10    15472 
1181 00ff 0009 0002 109c 1ff1 20 11010000 LEAX  -$1,X              30 1f 26 d3 35    15475 
1183 00ff 0008 0002 109c 1ff1 20 11010000 BNE   $1158              26 d3 35 96 fc    15480 
1158 00ff 0008 0002 109c 1ff1 20 11010000 LSR   <$00               04 00 06 01 06    15483 
115a 00ff 0008 0002 109c 1ff1 20 11010100 ROR   <$01               06 01 06 02 06    15489 
115c 00ff 0008 0002 109c 1ff1 20 11010001 ROR   <$02               06 02 06 03 dc    15495 
115e 00ff 0008 0002 109c 1ff1 20 11011001 ROR   <$03               06 03 dc 00 10    15501 
1160 00ff 0008 0002 109c 1ff1 20 11011000 LDD   <$00               dc 00 10 a3 c4    15507 
1162 007f 0008 0002 109c 1ff1 20 11010000 CMPD  ,U                 10 a3 c4 25 09    15512 
1165 007f 0008 0002 109c 1ff1 20 11011001 BCS   $1170              25 09 22 18 dc    15519 
1170 007f 0008 0002 109c 1ff1 20 11011001 LDD   $2,U               ec 42 93 02 ed    15522 
1172 2ed5 0008 0002 109c 1ff1 20 11010001 SUBD  <$02               93 02 ed 42 ec    15528 
1174 3655 0008 0002 109c 1ff1 20 11010001 STD   $2,U               ed 42 ec c4 24    15534 
1176 3655 0008 0002 109c 1ff1 20 11010001 LDD   ,U                 ec c4 24 03 83    15540 
1178 0094 0008 0002 109c 1ff1 20 11010001 BCC   $117D              24 03 83 00 01    15545 
117a 0094 0008 0002 109c 1ff1 20 11010001 SUBD  #$0001             83 00 01 93 00    15548 
117d 0093 0008 0002 109c 1ff1 20 11010000 SUBD  <$00               93 00 ed c4 30    15552 
117f 0014 0008 0002 109c 1ff1 20 11010000 STD   ,U                 ed c4 30 1f 26    15558 
1181 0014 0008 0002 109c 1ff1 20 11010000 LEAX  -$1,X              30 1f 26 d3 35    15563 
1183 0014 0007 0002 109c 1ff1 20 11010000 BNE   $1158              26 d3 35 96 fc    15568 
1158 0014 0007 0002 109c 1ff1 20 11010000 LSR   <$00               04 00 06 01 06    15571 
115a 0014 0007 0002 109c 1ff1 20 11010100 ROR   <$01               06 01 06 02 06    15577 
115c 0014 0007 0002 109c 1ff1 20 11010001 ROR   <$02               06 02 06 03 dc    15583 
115e 0014 0007 0002 109c 1ff1 20 11011000 ROR   <$03               06 03 dc 00 10    15589 
1160 0014 0007 0002 109c 1ff1 20 11010000 LDD   <$00               dc 00 10 a3 c4    15595 
1162 003f 0007 0002 109c 1ff1 20 11010000 CMPD  ,U                 10 a3 c4 25 09    15600 
1165 003f 0007 0002 109c 1ff1 20 11010000 BCS   $1170              25 09 22 18 dc    15607 
1167 003f 0007 0002 109c 1ff1 20 11010000 BHI   $1181              22 18 dc 02 10    15610 
1181 003f 0007 0002 109c 1ff1 20 11010000 LEAX  -$1,X              30 1f 26 d3 35    15613 
1183 003f 0006 0002 109c 1ff1 20 11010000 BNE   $1158              26 d3 35 96 fc    15618 
1158 003f 0006 0002 109c 1ff1 20 11010000 LSR   <$00               04 00 06 01 06    15621 
115a 003f 0006 0002 109c 1ff1 20 11010100 ROR   <$01               06 01 06 02 06    15627 
115c 003f 0006 0002 109c 1ff1 20 11010001 ROR   <$02               06 02 06 03 dc    15633 
115e 003f 0006 0002 109c 1ff1 20 11011000 ROR   <$03               06 03 dc 00 10    15639 
1160 003f 0006 0002 109c 1ff1 20 11010000 LDD   <$00               dc 00 10 a3 c4    15645 
1162 001f 0006 0002 109c 1ff1 20 11010000 CMPD  ,U                 10 a3 c4 25 09    15650 
1165 001f 0006 0002 109c 1ff1 20 11010000 BCS   $1170              25 09 22 18 dc    15657 
1167 001f 0006 0002 109c 1ff1 20 11010000 BHI   $1181              22 18 dc 02 10    15660 
1181 001f 0006 0002 109c 1ff1 20 11010000 LEAX  -$1,X              30 1f 26 d3 35    15663 
1183 001f 0005 0002 109c 1ff1 20 11010000 BNE   $1158              26 d3 35 96 fc    15668 
1158 001f 0005 0002 109c 1ff1 20 11010000 LSR   <$00               04 00 06 01 06    15671 
115a 001f 0005 0002 109c 1ff1 20 11010100 ROR   <$01               06 01 06 02 06    15677 
115c 001f 0005 0002 109c 1ff1 20 11010001 ROR   <$02               06 02 06 03 dc    15683 
115e 001f 0005 0002 109c 1ff1 20 11011000 ROR   <$03               06 03 dc 00 10    15689 
1160 001f 0005 0002 109c 1ff1 20 11010000 LDD   <$00               dc 00 10 a3 c4    15695 
1162 000f 0005 0002 109c 1ff1 20 11010000 CMPD  ,U                 10 a3 c4 25 09    15700 
1165 000f 0005 0002 109c 1ff1 20 11011001 BCS   $1170              25 09 22 18 dc    15707 
1170 000f 0005 0002 109c 1ff1 20 11011001 LDD   $2,U               ec 42 93 02 ed    15710 
1172 3655 0005 0002 109c 1ff1 20 11010001 SUBD  <$02               93 02 ed 42 ec    15716 
1174 3745 0005 0002 109c 1ff1 20 11010001 STD   $2,U               ed 42 ec c4 24    15722 
1176 3745 0005 0002 109c 1ff1 20 11010001 LDD   ,U                 ec c4 24 03 83    15728 
1178 0014 0005 0002 109c 1ff1 20 11010001 BCC   $117D              24 03 83 00 01    15733 
117a 0014 0005 0002 109c 1ff1 20 11010001 SUBD  #$0001             83 00 01 93 00    15736 
117d 0013 0005 0002 109c 1ff1 20 11010000 SUBD  <$00               93 00 ed c4 30    15740 
117f 0004 0005 0002 109c 1ff1 20 11010000 STD   ,U                 ed c4 30 1f 26    15746 
1181 0004 0005 0002 109c 1ff1 20 11010000 LEAX  -$1,X              30 1f 26 d3 35    15751 
1183 0004 0004 0002 109c 1ff1 20 11010000 BNE   $1158              26 d3 35 96 fc    15756 
1158 0004 0004 0002 109c 1ff1 20 11010000 LSR   <$00               04 00 06 01 06    15759 
115a 0004 0004 0002 109c 1ff1 20 11010100 ROR   <$01               06 01 06 02 06    15765 
115c 0004 0004 0002 109c 1ff1 20 11010001 ROR   <$02               06 02 06 03 dc    15771 
115e 0004 0004 0002 109c 1ff1 20 11011001 ROR   <$03               06 03 dc 00 10    15777 
1160 0004 0004 0002 109c 1ff1 20 11011000 LDD   <$00               dc 00 10 a3 c4    15783 
1162 0007 0004 0002 109c 1ff1 20 11010000 CMPD  ,U                 10 a3 c4 25 09    15788 
1165 0007 0004 0002 109c 1ff1 20 11010000 BCS   $1170              25 09 22 18 dc    15795 
1167 0007 0004 0002 109c 1ff1 20 11010000 BHI   $1181              22 18 dc 02 10    15798 
1181 0007 0004 0002 109c 1ff1 20 11010000 LEAX  -$1,X              30 1f 26 d3 35    15801 
1183 0007 0003 0002 109c 1ff1 20 11010000 BNE   $1158              26 d3 35 96 fc    15806 
1158 0007 0003 0002 109c 1ff1 20 11010000 LSR   <$00               04 00 06 01 06    15809 
115a 0007 0003 0002 109c 1ff1 20 11010100 ROR   <$01               06 01 06 02 06    15815 
115c 0007 0003 0002 109c 1ff1 20 11010001 ROR   <$02               06 02 06 03 dc    15821 
115e 0007 0003 0002 109c 1ff1 20 11011001 ROR   <$03               06 03 dc 00 10    15827 
1160 0007 0003 0002 109c 1ff1 20 11011000 LDD   <$00               dc 00 10 a3 c4    15833 
1162 0003 0003 0002 109c 1ff1 20 11010000 CMPD  ,U                 10 a3 c4 25 09    15838 
1165 0003 0003 0002 109c 1ff1 20 11011001 BCS   $1170              25 09 22 18 dc    15845 
1170 0003 0003 0002 109c 1ff1 20 11011001 LDD   $2,U               ec 42 93 02 ed    15848 
1172 3745 0003 0002 109c 1ff1 20 11010001 SUBD  <$02               93 02 ed 42 ec    15854 
1174 3781 0003 0002 109c 1ff1 20 11010001 STD   $2,U               ed 42 ec c4 24    15860 
1176 3781 0003 0002 109c 1ff1 20 11010001 LDD   ,U                 ec c4 24 03 83    15866 
1178 0004 0003 0002 109c 1ff1 20 11010001 BCC   $117D              24 03 83 00 01    15871 
117a 0004 0003 0002 109c 1ff1 20 11010001 SUBD  #$0001             83 00 01 93 00    15874 
117d 0003 0003 0002 109c 1ff1 20 11010000 SUBD  <$00               93 00 ed c4 30    15878 
117f 0000 0003 0002 109c 1ff1 20 11010100 STD   ,U                 ed c4 30 1f 26    15884 
1181 0000 0003 0002 109c 1ff1 20 11010100 LEAX  -$1,X              30 1f 26 d3 35    15889 
1183 0000 0002 0002 109c 1ff1 20 11010000 BNE   $1158              26 d3 35 96 fc    15894 
1158 0000 0002 0002 109c 1ff1 20 11010000 LSR   <$00               04 00 06 01 06    15897 
115a 0000 0002 0002 109c 1ff1 20 11010100 ROR   <$01               06 01 06 02 06    15903 
115c 0000 0002 0002 109c 1ff1 20 11010001 ROR   <$02               06 02 06 03 dc    15909 
115e 0000 0002 0002 109c 1ff1 20 11011001 ROR   <$03               06 03 dc 00 10    15915 
1160 0000 0002 0002 109c 1ff1 20 11011000 LDD   <$00               dc 00 10 a3 c4    15921 
1162 0001 0002 0002 109c 1ff1 20 11010000 CMPD  ,U                 10 a3 c4 25 09    15926 
1165 0001 0002 0002 109c 1ff1 20 11010000 BCS   $1170              25 09 22 18 dc    15933 
1167 0001 0002 0002 109c 1ff1 20 11010000 BHI   $1181              22 18 dc 02 10    15936 
1181 0001 0002 0002 109c 1ff1 20 11010000 LEAX  -$1,X              30 1f 26 d3 35    15939 
1183 0001 0001 0002 109c 1ff1 20 11010000 BNE   $1158              26 d3 35 96 fc    15944 
1158 0001 0001 0002 109c 1ff1 20 11010000 LSR   <$00               04 00 06 01 06    15947 
115a 0001 0001 0002 109c 1ff1 20 11010100 ROR   <$01               06 01 06 02 06    15953 
115c 0001 0001 0002 109c 1ff1 20 11010101 ROR   <$02               06 02 06 03 dc    15959 
115e 0001 0001 0002 109c 1ff1 20 11011001 ROR   <$03               06 03 dc 00 10    15965 
1160 0001 0001 0002 109c 1ff1 20 11011000 LDD   <$00               dc 00 10 a3 c4    15971 
1162 0000 0001 0002 109c 1ff1 20 11010100 CMPD  ,U                 10 a3 c4 25 09    15976 
1165 0000 0001 0002 109c 1ff1 20 11010100 BCS   $1170              25 09 22 18 dc    15983 
1167 0000 0001 0002 109c 1ff1 20 11010100 BHI   $1181              22 18 dc 02 10    15986 
1169 0000 0001 0002 109c 1ff1 20 11010100 LDD   <$02               dc 02 10 a3 42    15989 
116b fff1 0001 0002 109c 1ff1 20 11011000 CMPD  $2,U               10 a3 42 22 11    15994 
116e fff1 0001 0002 109c 1ff1 20 11011000 BHI   $1181              22 11 ec 42 93    16002 
1181 fff1 0001 0002 109c 1ff1 20 11011000 LEAX  -$1,X              30 1f 26 d3 35    16005 
1183 fff1 0000 0002 109c 1ff1 20 11011100 BNE   $1158              26 d3 35 96 fc    16010 
1185 fff1 0000 0002 109c 1ff1 20 11011100 PULS  A,B,X,PC           35 96 fc 10 a0    16013 
112a 0036 fff1 0002 109c 1ff7 20 11011100 PULS  X,U,PC             35 d0 34 16 9f    16024 
118e 0036 1098 0002 1099 1ffd 20 11011100 LDD   $109E              fc 10 9e fd 10    16035 
1191 3781 1098 0002 1099 1ffd 20 11010000 STD   $1098              fd 10 98 39 cd    16041 
1194 3781 1098 0002 1099 1ffd 20 11010000 RTS                      39 cd cd cd cd    16047 
1035 3781 1098 0002 1099 1fff 20 11010000 LDX   #$1086             8e 10 86 a7 84    16052 
1038 3781 1086 0002 1099 1fff 20 11010000 STA   ,X                 a7 84 e8 01 24    16055 
103a 3781 1086 0002 1099 1fff 20 11010000 EORB  $1,X               e8 01 24 01 19    16059 
103c 37d2 1086 0002 1099 1fff 20 11011000 BCC   $103F              24 01 19 25 01    16064 
103f 37d2 1086 0002 1099 1fff 20 11011000 BCS   $1042              25 01 4c 27 01    16067 
1041 37d2 1086 0002 1099 1fff 20 11011000 INCA                     4c 27 01 4a 2c    16070 
1042 38d2 1086 0002 1099 1fff 20 11010000 BEQ   $1045              27 01 4a 2c 03    16072 
1044 38d2 1086 0002 1099 1fff 20 11010000 DECA                     4a 2c 03 bd 10    16075 
1045 37d2 1086 0002 1099 1fff 20 11010000 BGE   $104A              2c 03 bd 10 af    16077 
104a 37d2 1086 0002 1099 1fff 20 11010000 BGT   $104E              2e 02 ab 84 22    16080 
104e 37d2 1086 0002 1099 1fff 20 11010000 BHI   $1052              22 02 a9 84 24    16083 
1052 37d2 1086 0002 1099 1fff 20 11010000 BCC   $1055              24 01 3d 2f 02    16086 
1055 37d2 1086 0002 1099 1fff 20 11010000 BLE   $1059              2f 02 a0 84 25    16089 
1057 37d2 1086 0002 1099 1fff 20 11010000 SUBA  ,X                 a0 84 25 02 a2    16092 
1059 00d2 1086 0002 1099 1fff 20 11010100 BCS   $105D              25 02 a2 84 23    16096 
105b 00d2 1086 0002 1099 1fff 20 11010100 SBCA  ,X                 a2 84 23 01 48    16099 
105d c9d2 1086 0002 1099 1fff 20 11011001 BLS   $1060              23 01 48 2d 01    16103 
1060 c9d2 1086 0002 1099 1fff 20 11011001 BLT   $1063              2d 01 49 2b 01    16106 
1063 c9d2 1086 0002 1099 1fff 20 11011001 BMI   $1066              2b 01 44 26 01    16109 
1066 c9d2 1086 0002 1099 1fff 20 11011001 BNE   $1069              26 01 46 2a 02    16112 
1069 c9d2 1086 0002 1099 1fff 20 11011001 BPL   $106D              2a 02 84 0f 28    16115 
106b c9d2 1086 0002 1099 1fff 20 11011001 ANDA  #$0F               84 0f 28 02 8a    16118 
106d 09d2 1086 0002 1099 1fff 20 11010001 BVC   $1071              28 02 8a f0 29    16120 
1071 09d2 1086 0002 1099 1fff 20 11010001 BVS   $1075              29 02 88 aa a8    16123 
1073 09d2 1086 0002 1099 1fff 20 11010001 EORA  #$AA               88 aa a8 84 31    16126 
1075 a3d2 1086 0002 1099 1fff 20 11011001 EORA  ,X                 a8 84 31 3f 26    16128 
1077 94d2 1086 0002 1099 1fff 20 11011001 LEAY  -$1,Y              31 3f 26 9f bd    16132 
1079 94d2 1086 0001 1099 1fff 20 11011001 BNE   $101A              26 9f bd 11 87    16137 
101a 94d2 1086 0001 1099 1fff 20 11011001 LDU   #$1086             ce 10 86 8e 00    16140 
101d 94d2 1086 0001 1086 1fff 20 11010001 LDX   #$0012             8e 00 12 bd 10    16143 
1020 94d2 0012 0001 1086 1fff 20 11010001 JSR   $10D4              bd 10 d4 8e 10    16146 
10d4 94d2 0012 0001 1086 1ffd 20 11010001 PSHS  U,X,B,A            34 56 4f e6 c0    16154 
10d6 94d2 0012 0001 1086 1ff7 20 11010001 CLRA                     4f e6 c0 f3 10    16165 
10d7 00d2 0012 0001 1086 1ff7 20 11010100 LDB   ,U+                e6 c0 f3 10 9a    16167 
10d9 0037 0012 0001 1087 1ff7 20 11010000 ADDD  $109A              f3 10 9a fd 10    16173 
10dc 8148 0012 0001 1087 1ff7 20 11011000 STD   $109A              fd 10 9a 24 09    16180 
10df 8148 0012 0001 1087 1ff7 20 11011000 BCC   $10EA              24 09 fc 10 98    16186 
10ea 8148 0012 0001 1087 1ff7 20 11011000 LDD   $109A              fc 10 9a f3 10    16189 
10ed 8148 0012 0001 1087 1ff7 20 11011000 ADDD  $109E              f3 10 9e fd 10    16195 
10f0 b8c9 0012 0001 1087 1ff7 20 11011000 STD   $109E              fd 10 9e fc 10    16202 
10f3 b8c9 0012 0001 1087 1ff7 20 11011000 LDD   $1098              fc 10 98 24 03    16208 
10f6 3781 0012 0001 1087 1ff7 20 11010000 BCC   $10FB              24 03 c3 00 01    16214 
10fb 3781 0012 0001 1087 1ff7 20 11010000 ADDD  $109C              f3 10 9c fd 10    16217 
10fe 3781 0012 0001 1087 1ff7 20 11010000 STD   $109C              fd 10 9c fc 10    16224 
1101 3781 0012 0001 1087 1ff7 20 11010000 LDD   $10A0              fc 10 a0 c3 00    16230 
1104 0036 0012 0001 1087 1ff7 20 11010000 ADDD  #$0001             c3 00 01 10 83    16236 
1107 0037 0012 0001 1087 1ff7 20 11010000 CMPD  #$15AE             10 83 15 ae 26    16240 
110b 0037 0012 0001 1087 1ff7 20 11011001 BNE   $1112              26 05 8d 0c cc    16245 
1112 0037 0012 0001 1087 1ff7 20 11011001 STD   $10A0              fd 10 a0 30 1f    16248 
1115 0037 0012 0001 1087 1ff7 20 11010001 LEAX  -$1,X              30 1f 26 bd 35    16254 
1117 0037 0011 0001 1087 1ff7 20 11010001 BNE   $10D6              26 bd 35 d6 34    16259 
10d6 0037 0011 0001 1087 1ff7 20 11010001 CLRA                     4f e6 c0 f3 10    16262 
10d7 0037 0011 0001 1087 1ff7 20 11010100 LDB   ,U+                e6 c0 f3 10 9a    16264 
10d9 0053 0011 0001 1088 1ff7 20 11010000 ADDD  $109A              f3 10 9a fd 10    16270 
10dc 819b 0011 0001 1088 1ff7 20 11011000 STD   $109A              fd 10 9a 24 09    16277 
10df 819b 0011 0001 1088 1ff7 20 11011000 BCC   $10EA              24 09 fc 10 98    16283 
10ea 819b 0011 0001 1088 1ff7 20 11011000 LDD   $109A              fc 10 9a f3 10    16286 
10ed 819b 0011 0001 1088 1ff7 20 11011000 ADDD  $109E              f3 10 9e fd 10    16292 
10f0 3a64 0011 0001 1088 1ff7 20 11010011 STD   $109E              fd 10 9e fc 10    16299 
10f3 3a64 0011 0001 1088 1ff7 20 11010001 LDD   $1098              fc 10 98 24 03    16305 
10f6 3781 0011 0001 1088 1ff7 20 11010001 BCC   $10FB              24 03 c3 00 01    16311 
10f8 3781 0011 0001 1088 1ff7 20 11010001 ADDD  #$0001             c3 00 01 f3 10    16314 
10fb 3782 0011 0001 1088 1ff7 20 11010000 ADDD  $109C              f3 10 9c fd 10    16318 
10fe 6f03 0011 0001 1088 1ff7 20 11010000 STD   $109C              fd 10 9c fc 10    16325 
1101 6f03 0011 0001 1088 1ff7 20 11010000 LDD   $10A0              fc 10 a0 c3 00    16331 
1104 0037 0011 0001 1088 1ff7 20 11010000 ADDD  #$0001             c3 00 01 10 83    16337 
1107 0038 0011 0001 1088 1ff7 20 11010000 CMPD  #$15AE             10 83 15 ae 26    16341 
110b 0038 0011 0001 1088 1ff7 20 11011001 BNE   $1112              26 05 8d 0c cc    16346 
1112 0038 0011 0001 1088 1ff7 20 11011001 STD   $10A0              fd 10 a0 30 1f    16349 
1115 0038 0011 0001 1088 1ff7 20 11010001 LEAX  -$1,X              30 1f 26 bd 35    16355 
1117 0038 0010 0001 1088 1ff7 20 11010001 BNE   $10D6              26 bd 35 d6 34    16360 
10d6 0038 0010 0001 1088 1ff7 20 11010001 CLRA                     4f e6 c0 f3 10    16363 
10d7 0038 0010 0001 1088 1ff7 20 11010100 LDB   ,U+                e6 c0 f3 10 9a    16365 
10d9 0053 0010 0001 1089 1ff7 20 11010000 ADDD  $109A              f3 10 9a fd 10    16371 
10dc 81ee 0010 0001 1089 1ff7 20 11011000 STD   $109A              fd 10 9a 24 09    16378 
10df 81ee 0010 0001 1089 1ff7 20 11011000 BCC   $10EA              24 09 fc 10 98    16384 
10ea 81ee 0010 0001 1089 1ff7 20 11011000 LDD   $109A              fc 10 9a f3 10    16387 
10ed 81ee 0010 0001 1089 1ff7 20 11011000 ADDD  $109E              f3 10 9e fd 10    16393 
10f0 bc52 0010 0001 1089 1ff7 20 11011000 STD   $109E              fd 10 9e fc 10    16400 
10f3 bc52 0010 0001 1089 1ff7 20 11011000 LDD   $1098              fc 10 98 24 03    16406 
10f6 3781 0010 0001 1089 1ff7 20 11010000 BCC   $10FB              24 03 c3 00 01    16412 
10fb 3781 0010 0001 1089 1ff7 20 11010000 ADDD  $109C              f3 10 9c fd 10    16415 
10fe a684 0010 0001 1089 1ff7 20 11011010 STD   $109C              fd 10 9c fc 10    16422 
1101 a684 0010 0001 1089 1ff7 20 11011000 LDD   $10A0              fc 10 a0 c3 00    16428 
1104 0038 0010 0001 1089 1ff7 20 11010000 ADDD  #$0001             c3 00 01 10 83    16434 
1107 0039 0010 0001 1089 1ff7 20 11010000 CMPD  #$15AE             10 83 15 ae 26    16438 
110b 0039 0010 0001 1089 1ff7 20 11011001 BNE   $1112              26 05 8d 0c cc    16443 
1112 0039 0010 0001 1089 1ff7 20 11011001 STD   $10A0              fd 10 a0 30 1f    16446 
1115 0039 0010 0001 1089 1ff7 20 11010001 LEAX  -$1,X              30 1f 26 bd 35    16452 
1117 0039 000f 0001 1089 1ff7 20 11010001 BNE   $10D6              26 bd 35 d6 34    16457 
10d6 0039 000f 0001 1089 1ff7 20 11010001 CLRA                     4f e6 c0 f3 10    16460 
10d7 0039 000f 0001 1089 1ff7 20 11010100 LDB   ,U+                e6 c0 f3 10 9a    16462 
10d9 0053 000f 0001 108a 1ff7 20 11010000 ADDD  $109A              f3 10 9a fd 10    16468 
10dc 8241 000f 0001 108a 1ff7 20 11011000 STD   $109A              fd 10 9a 24 09    16475 
10df 8241 000f 0001 108a 1ff7 20 11011000 BCC   $10EA              24 09 fc 10 98    16481 
10ea 8241 000f 0001 108a 1ff7 20 11011000 LDD   $109A              fc 10 9a f3 10    16484 
10ed 8241 000f 0001 108a 1ff7 20 11011000 ADDD  $109E              f3 10 9e fd 10    16490 
10f0 3e93 000f 0001 108a 1ff7 20 11010011 STD   $109E              fd 10 9e fc 10    16497 
10f3 3e93 000f 0001 108a 1ff7 20 11010001 LDD   $1098              fc 10 98 24 03    16503 
10f6 3781 000f 0001 108a 1ff7 20 11010001 BCC   $10FB              24 03 c3 00 01    16509 
10f8 3781 000f 0001 108a 1ff7 20 11010001 ADDD  #$0001             c3 00 01 f3 10    16512 
10fb 3782 000f 0001 108a 1ff7 20 11010000 ADDD  $109C              f3 10 9c fd 10    16516 
10fe de06 000f 0001 108a 1ff7 20 11011000 STD   $109C              fd 10 9c fc 10    16523 
1101 de06 000f 0001 108a 1ff7 20 11011000 LDD   $10A0              fc 10 a0 c3 00    16529 
1104 0039 000f 0001 108a 1ff7 20 11010000 ADDD  #$0001             c3 00 01 10 83    16535 
1107 003a 000f 0001 108a 1ff7 20 11010000 CMPD  #$15AE             10 83 15 ae 26    16539 
110b 003a 000f 0001 108a 1ff7 20 11011001 BNE   $1112              26 05 8d 0c cc    16544 
1112 003a 000f 0001 108a 1ff7 20 11011001 STD   $10A0              fd 10 a0 30 1f    16547 
1115 003a 000f 0001 108a 1ff7 20 11010001 LEAX  -$1,X              30 1f 26 bd 35    16553 
1117 003a 000e 0001 108a 1ff7 20 11010001 BNE   $10D6              26 bd 35 d6 34    16558 
10d6 003a 000e 0001 108a 1ff7 20 11010001 CLRA                     4f e6 c0 f3 10    16561 
10d7 003a 000e 0001 108a 1ff7 20 11010100 LDB   ,U+                e6 c0 f3 10 9a    16563 
10d9 0053 000e 0001 108b 1ff7 20 11010000 ADDD  $109A              f3 10 9a fd 10    16569 
10dc 8294 000e 0001 108b 1ff7 20 11011000 STD   $109A              fd 10 9a 24 09    16576 
10df 8294 000e 0001 108b 1ff7 20 11011000 BCC   $10EA              24 09 fc 10 98    16582 
10ea 8294 000e 0001 108b 1ff7 20 11011000 LDD   $109A              fc 10 9a f3 10    16585 
10ed 8294 000e 0001 108b 1ff7 20 11011000 ADDD  $109E              f3 10 9e fd 10    16591 
10f0 c127 000e 0001 108b 1ff7 20 11011000 STD   $109E              fd 10 9e fc 10    16598 
10f3 c127 000e 0001 108b 1ff7 20 11011000 LDD   $1098              fc 10 98 24 03    16604 
10f6 3781 000e 0001 108b 1ff7 20 11010000 BCC   $10FB              24 03 c3 00 01    16610 
10fb 3781 000e 0001 108b 1ff7 20 11010000 ADDD  $109C              f3 10 9c fd 10    16613 
10fe 1587 000e 0001 108b 1ff7 20 11010001 STD   $109C              fd 10 9c fc 10    16620 
1101 1587 000e 0001 108b 1ff7 20 11010001 LDD   $10A0              fc 10 a0 c3 00    16626 
1104 003a 000e 0001 108b 1ff7 20 11010001 ADDD  #$0001             c3 00 01 10 83    16632 
1107 003b 000e 0001 108b 1ff7 20 11010000 CMPD  #$15AE             10 83 15 ae 26    16636 
110b 003b 000e 0001 108b 1ff7 20 11011001 BNE   $1112              26 05 8d 0c cc    16641 
1112 003b 000e 0001 108b 1ff7 20 11011001 STD   $10A0              fd 10 a0 30 1f    16644 
1115 003b 000e 0001 108b 1ff7 20 11010001 LEAX  -$1,X              30 1f 26 bd 35    16650 
1117 003b 000d 0001 108b 1ff7 20 11010001 BNE   $10D6              26 bd 35 d6 34    16655 
10d6 003b 000d 0001 108b 1ff7 20 11010001 CLRA                     4f e6 c0 f3 10    16658 
10d7 003b 000d 0001 108b 1ff7 20 11010100 LDB   ,U+                e6 c0 f3 10 9a    16660 
10d9 0053 000d 0001 108c 1ff7 20 11010000 ADDD  $109A              f3 10 9a fd 10    16666 
10dc 82e7 000d 0001 108c 1ff7 20 11011000 STD   $109A              fd 10 9a 24 09    16673 
10df 82e7 000d 0001 108c 1ff7 20 11011000 BCC   $10EA              24 09 fc 10 98    16679 
10ea 82e7 000d 0001 108c 1ff7 20 11011000 LDD   $109A              fc 10 9a f3 10    16682 
10ed 82e7 000d 0001 108c 1ff7 20 11011000 ADDD  $109E              f3 10 9e fd 10    16688 
10f0 440e 000d 0001 108c 1ff7 20 11010011 STD   $109E              fd 10 9e fc 10    16695 
10f3 440e 000d 0001 108c 1ff7 20 11010001 LDD   $1098              fc 10 98 24 03    16701 
10f6 3781 000d 0001 108c 1ff7 20 11010001 BCC   $10FB              24 03 c3 00 01    16707 
10f8 3781 000d 0001 108c 1ff7 20 11010001 ADDD  #$0001             c3 00 01 f3 10    16710 
10fb 3782 000d 0001 108c 1ff7 20 11010000 ADDD  $109C              f3 10 9c fd 10    16714 
10fe 4d09 000d 0001 108c 1ff7 20 11010000 STD   $109C              fd 10 9c fc 10    16721 
1101 4d09 000d 0001 108c 1ff7 20 11010000 LDD   $10A0              fc 10 a0 c3 00    16727 
1104 003b 000d 0001 108c 1ff7 20 11010000 ADDD  #$0001             c3 00 01 10 83    16733 
1107 003c 000d 0001 108c 1ff7 20 11010000 CMPD  #$15AE             10 83 15 ae 26    16737 
110b 003c 000d 0001 108c 1ff7 20 11011001 BNE   $1112              26 05 8d 0c cc    16742 
1112 003c 000d 0001 108c 1ff7 20 11011001 STD   $10A0              fd 10 a0 30 1f    16745 
1115 003c 000d 0001 108c 1ff7 20 11010001 LEAX  -$1,X              30 1f 26 bd 35    16751 
1117 003c 000c 0001 108c 1ff7 20 11010001 BNE   $10D6              26 bd 35 d6 34    16756 
10d6 003c 000c 0001 108c 1ff7 20 11010001 CLRA                     4f e6 c0 f3 10    16759 
10d7 003c 000c 0001 108c 1ff7 20 11010100 LDB   ,U+                e6 c0 f3 10 9a    16761 
10d9 0053 000c 0001 108d 1ff7 20 11010000 ADDD  $109A              f3 10 9a fd 10    16767 
10dc 833a 000c 0001 108d 1ff7 20 11011000 STD   $109A              fd 10 9a 24 09    16774 
10df 833a 000c 0001 108d 1ff7 20 11011000 BCC   $10EA              24 09 fc 10 98    16780 
10ea 833a 000c 0001 108d 1ff7 20 11011000 LDD   $109A              fc 10 9a f3 10    16783 
10ed 833a 000c 0001 108d 1ff7 20 11011000 ADDD  $109E              f3 10 9e fd 10    16789 
10f0 c748 000c 0001 108d 1ff7 20 11011000 STD   $109E              fd 10 9e fc 10    16796 
10f3 c748 000c 0001 108d 1ff7 20 11011000 LDD   $1098              fc 10 98 24 03    16802 
10f6 3781 000c 0001 108d 1ff7 20 11010000 BCC   $10FB              24 03 c3 00 01    16808 
10fb 3781 000c 0001 108d 1ff7 20 11010000 ADDD  $109C              f3 10 9c fd 10    16811 
10fe 848a 000c 0001 108d 1ff7 20 11011010 STD   $109C              fd 10 9c fc 10    16818 
1101 848a 000c 0001 108d 1ff7 20 11011000 LDD   $10A0              fc 10 a0 c3 00    16824 
1104 003c 000c 0001 108d 1ff7 20 11010000 ADDD  #$0001             c3 00 01 10 83    16830 
1107 003d 000c 0001 108d 1ff7 20 11010000 CMPD  #$15AE             10 83 15 ae 26    16834 
110b 003d 000c 0001 108d 1ff7 20 11011001 BNE   $1112              26 05 8d 0c cc    16839 
1112 003d 000c 0001 108d 1ff7 20 11011001 STD   $10A0              fd 10 a0 30 1f    16842 
1115 003d 000c 0001 108d 1ff7 20 11010001 LEAX  -$1,X              30 1f 26 bd 35    16848 
1117 003d 000b 0001 108d 1ff7 20 11010001 BNE   $10D6              26 bd 35 d6 34    16853 
10d6 003d 000b 0001 108d 1ff7 20 11010001 CLRA                     4f e6 c0 f3 10    16856 
10d7 003d 000b 0001 108d 1ff7 20 11010100 LDB   ,U+                e6 c0 f3 10 9a    16858 
10d9 0053 000b 0001 108e 1ff7 20 11010000 ADDD  $109A              f3 10 9a fd 10    16864 
10dc 838d 000b 0001 108e 1ff7 20 11011000 STD   $109A              fd 10 9a 24 09    16871 
10df 838d 000b 0001 108e 1ff7 20 11011000 BCC   $10EA              24 09 fc 10 98    16877 
10ea 838d 000b 0001 108e 1ff7 20 11011000 LDD   $109A              fc 10 9a f3 10    16880 
10ed 838d 000b 0001 108e 1ff7 20 11011000 ADDD  $109E              f3 10 9e fd 10    16886 
10f0 4ad5 000b 0001 108e 1ff7 20 11010011 STD   $109E              fd 10 9e fc 10    16893 
10f3 4ad5 000b 0001 108e 1ff7 20 11010001 LDD   $1098              fc 10 98 24 03    16899 
10f6 3781 000b 0001 108e 1ff7 20 11010001 BCC   $10FB              24 03 c3 00 01    16905 
10f8 3781 000b 0001 108e 1ff7 20 11010001 ADDD  #$0001             c3 00 01 f3 10    16908 
10fb 3782 000b 0001 108e 1ff7 20 11010000 ADDD  $109C              f3 10 9c fd 10    16912 
10fe bc0c 000b 0001 108e 1ff7 20 11011000 STD   $109C              fd 10 9c fc 10    16919 
1101 bc0c 000b 0001 108e 1ff7 20 11011000 LDD   $10A0              fc 10 a0 c3 00    16925 
1104 003d 000b 0001 108e 1ff7 20 11010000 ADDD  #$0001             c3 00 01 10 83    16931 
1107 003e 000b 0001 108e 1ff7 20 11010000 CMPD  #$15AE             10 83 15 ae 26    16935 
110b 003e 000b 0001 108e 1ff7 20 11011001 BNE   $1112              26 05 8d 0c cc    16940 
1112 003e 000b 0001 108e 1ff7 20 11011001 STD   $10A0              fd 10 a0 30 1f    16943 
1115 003e 000b 0001 108e 1ff7 20 11010001 LEAX  -$1,X              30 1f 26 bd 35    16949 
1117 003e 000a 0001 108e 1ff7 20 11010001 BNE   $10D6              26 bd 35 d6 34    16954 
10d6 003e 000a 0001 108e 1ff7 20 11010001 CLRA                     4f e6 c0 f3 10    16957 
10d7 003e 000a 0001 108e 1ff7 20 11010100 LDB   ,U+                e6 c0 f3 10 9a    16959 
10d9 0053 000a 0001 108f 1ff7 20 11010000 ADDD  $109A              f3 10 9a fd 10    16965 
10dc 83e0 000a 0001 108f 1ff7 20 11011000 STD   $109A              fd 10 9a 24 09    16972 
10df 83e0 000a 0001 108f 1ff7 20 11011000 BCC   $10EA              24 09 fc 10 98    16978 
10ea 83e0 000a 0001 108f 1ff7 20 11011000 LDD   $109A              fc 10 9a f3 10    16981 
10ed 83e0 000a 0001 108f 1ff7 20 11011000 ADDD  $109E              f3 10 9e fd 10    16987 
10f0 ceb5 000a 0001 108f 1ff7 20 11011000 STD   $109E              fd 10 9e fc 10    16994 
10f3 ceb5 000a 0001 108f 1ff7 20 11011000 LDD   $1098              fc 10 98 24 03    17000 
10f6 3781 000a 0001 108f 1ff7 20 11010000 BCC   $10FB              24 03 c3 00 01    17006 
10fb 3781 000a 0001 108f 1ff7 20 11010000 ADDD  $109C              f3 10 9c fd 10    17009 
10fe f38d 000a 0001 108f 1ff7 20 11011000 STD   $109C              fd 10 9c fc 10    17016 
1101 f38d 000a 0001 108f 1ff7 20 11011000 LDD   $10A0              fc 10 a0 c3 00    17022 
1104 003e 000a 0001 108f 1ff7 20 11010000 ADDD  #$0001             c3 00 01 10 83    17028 
1107 003f 000a 0001 108f 1ff7 20 11010000 CMPD  #$15AE             10 83 15 ae 26    17032 
110b 003f 000a 0001 108f 1ff7 20 11011001 BNE   $1112              26 05 8d 0c cc    17037 
1112 003f 000a 0001 108f 1ff7 20 11011001 STD   $10A0              fd 10 a0 30 1f    17040 
1115 003f 000a 0001 108f 1ff7 20 11010001 LEAX  -$1,X              30 1f 26 bd 35    17046 
1117 003f 0009 0001 108f 1ff7 20 11010001 BNE   $10D6              26 bd 35 d6 34    17051 
10d6 003f 0009 0001 108f 1ff7 20 11010001 CLRA                     4f e6 c0 f3 10    17054 
10d7 003f 0009 0001 108f 1ff7 20 11010100 LDB   ,U+                e6 c0 f3 10 9a    17056 
10d9 0053 0009 0001 1090 1ff7 20 11010000 ADDD  $109A              f3 10 9a fd 10    17062 
10dc 8433 0009 0001 1090 1ff7 20 11011000 STD   $109A              fd 10 9a 24 09    17069 
10df 8433 0009 0001 1090 1ff7 20 11011000 BCC   $10EA              24 09 fc 10 98    17075 
10ea 8433 0009 0001 1090 1ff7 20 11011000 LDD   $109A              fc 10 9a f3 10    17078 
10ed 8433 0009 0001 1090 1ff7 20 11011000 ADDD  $109E              f3 10 9e fd 10    17084 
10f0 52e8 0009 0001 1090 1ff7 20 11010011 STD   $109E              fd 10 9e fc 10    17091 
10f3 52e8 0009 0001 1090 1ff7 20 11010001 LDD   $1098              fc 10 98 24 03    17097 
10f6 3781 0009 0001 1090 1ff7 20 11010001 BCC   $10FB              24 03 c3 00 01    17103 
10f8 3781 0009 0001 1090 1ff7 20 11010001 ADDD  #$0001             c3 00 01 f3 10    17106 
10fb 3782 0009 0001 1090 1ff7 20 11010000 ADDD  $109C              f3 10 9c fd 10    17110 
10fe 2b0f 0009 0001 1090 1ff7 20 11010001 STD   $109C              fd 10 9c fc 10    17117 
1101 2b0f 0009 0001 1090 1ff7 20 11010001 LDD   $10A0              fc 10 a0 c3 00    17123 
1104 003f 0009 0001 1090 1ff7 20 11010001 ADDD  #$0001             c3 00 01 10 83    17129 
1107 0040 0009 0001 1090 1ff7 20 11010000 CMPD  #$15AE             10 83 15 ae 26    17133 
110b 0040 0009 0001 1090 1ff7 20 11011001 BNE   $1112              26 05 8d 0c cc    17138 
1112 0040 0009 0001 1090 1ff7 20 11011001 STD   $10A0              fd 10 a0 30 1f    17141 
1115 0040 0009 0001 1090 1ff7 20 11010001 LEAX  -$1,X              30 1f 26 bd 35    17147 
1117 0040 0008 0001 1090 1ff7 20 11010001 BNE   $10D6              26 bd 35 d6 34    17152 
10d6 0040 0008 0001 1090 1ff7 20 11010001 CLRA                     4f e6 c0 f3 10    17155 
10d7 0040 0008 0001 1090 1ff7 20 11010100 LDB   ,U+                e6 c0 f3 10 9a    17157 
10d9 0053 0008 0001 1091 1ff7 20 11010000 ADDD  $109A              f3 10 9a fd 10    17163 
10dc 8486 0008 0001 1091 1ff7 20 11011000 STD   $109A              fd 10 9a 24 09    17170 
10df 8486 0008 0001 1091 1ff7 20 11011000 BCC   $10EA              24 09 fc 10 98    17176 
10ea 8486 0008 0001 1091 1ff7 20 11011000 LDD   $109A              fc 10 9a f3 10    17179 
10ed 8486 0008 0001 1091 1ff7 20 11011000 ADDD  $109E              f3 10 9e fd 10    17185 
10f0 d76e 0008 0001 1091 1ff7 20 11011000 STD   $109E              fd 10 9e fc 10    17192 
10f3 d76e 0008 0001 1091 1ff7 20 11011000 LDD   $1098              fc 10 98 24 03    17198 
10f6 3781 0008 0001 1091 1ff7 20 11010000 BCC   $10FB              24 03 c3 00 01    17204 
10fb 3781 0008 0001 1091 1ff7 20 11010000 ADDD  $109C              f3 10 9c fd 10    17207 
10fe 6290 0008 0001 1091 1ff7 20 11010000 STD   $109C              fd 10 9c fc 10    17214 
1101 6290 0008 0001 1091 1ff7 20 11010000 LDD   $10A0              fc 10 a0 c3 00    17220 
1104 0040 0008 0001 1091 1ff7 20 11010000 ADDD  #$0001             c3 00 01 10 83    17226 
1107 0041 0008 0001 1091 1ff7 20 11010000 CMPD  #$15AE             10 83 15 ae 26    17230 
110b 0041 0008 0001 1091 1ff7 20 11011001 BNE   $1112              26 05 8d 0c cc    17235 
1112 0041 0008 0001 1091 1ff7 20 11011001 STD   $10A0              fd 10 a0 30 1f    17238 
1115 0041 0008 0001 1091 1ff7 20 11010001 LEAX  -$1,X              30 1f 26 bd 35    17244 
1117 0041 0007 0001 1091 1ff7 20 11010001 BNE   $10D6              26 bd 35 d6 34    17249 
10d6 0041 0007 0001 1091 1ff7 20 11010001 CLRA                     4f e6 c0 f3 10    17252 
10d7 0041 0007 0001 1091 1ff7 20 11010100 LDB   ,U+                e6 c0 f3 10 9a    17254 
10d9 0053 0007 0001 1092 1ff7 20 11010000 ADDD  $109A              f3 10 9a fd 10    17260 
10dc 84d9 0007 0001 1092 1ff7 20 11011000 STD   $109A              fd 10 9a 24 09    17267 
10df 84d9 0007 0001 1092 1ff7 20 11011000 BCC   $10EA              24 09 fc 10 98    17273 
10ea 84d9 0007 0001 1092 1ff7 20 11011000 LDD   $109A              fc 10 9a f3 10    17276 
10ed 84d9 0007 0001 1092 1ff7 20 11011000 ADDD  $109E              f3 10 9e fd 10    17282 
10f0 5c47 0007 0001 1092 1ff7 20 11010011 STD   $109E              fd 10 9e fc 10    17289 
10f3 5c47 0007 0001 1092 1ff7 20 11010001 LDD   $1098              fc 10 98 24 03    17295 
10f6 3781 0007 0001 1092 1ff7 20 11010001 BCC   $10FB              24 03 c3 00 01    17301 
10f8 3781 0007 0001 1092 1ff7 20 11010001 ADDD  #$0001             c3 00 01 f3 10    17304 
10fb 3782 0007 0001 1092 1ff7 20 11010000 ADDD  $109C              f3 10 9c fd 10    17308 
10fe 9a12 0007 0001 1092 1ff7 20 11011010 STD   $109C              fd 10 9c fc 10    17315 
1101 9a12 0007 0001 1092 1ff7 20 11011000 LDD   $10A0              fc 10 a0 c3 00    17321 
1104 0041 0007 0001 1092 1ff7 20 11010000 ADDD  #$0001             c3 00 01 10 83    17327 
1107 0042 0007 0001 1092 1ff7 20 11010000 CMPD  #$15AE             10 83 15 ae 26    17331 
110b 0042 0007 0001 1092 1ff7 20 11011001 BNE   $1112              26 05 8d 0c cc    17336 
1112 0042 0007 0001 1092 1ff7 20 11011001 STD   $10A0              fd 10 a0 30 1f    17339 
1115 0042 0007 0001 1092 1ff7 20 11010001 LEAX  -$1,X              30 1f 26 bd 35    17345 
1117 0042 0006 0001 1092 1ff7 20 11010001 BNE   $10D6              26 bd 35 d6 34    17350 
10d6 0042 0006 0001 1092 1ff7 20 11010001 CLRA                     4f e6 c0 f3 10    17353 
10d7 0042 0006 0001 1092 1ff7 20 11010100 LDB   ,U+                e6 c0 f3 10 9a    17355 
10d9 0053 0006 0001 1093 1ff7 20 11010000 ADDD  $109A              f3 10 9a fd 10    17361 
10dc 852c 0006 0001 1093 1ff7 20 11011000 STD   $109A              fd 10 9a 24 09    17368 
10df 852c 0006 0001 1093 1ff7 20 11011000 BCC   $10EA              24 09 fc 10 98    17374 
10ea 852c 0006 0001 1093 1ff7 20 11011000 LDD   $109A              fc 10 9a f3 10    17377 
10ed 852c 0006 0001 1093 1ff7 20 11011000 ADDD  $109E              f3 10 9e fd 10    17383 
10f0 e173 0006 0001 1093 1ff7 20 11011000 STD   $109E              fd 10 9e fc 10    17390 
10f3 e173 0006 0001 1093 1ff7 20 11011000 LDD   $1098              fc 10 98 24 03    17396 
10f6 3781 0006 0001 1093 1ff7 20 11010000 BCC   $10FB              24 03 c3 00 01    17402 
10fb 3781 0006 0001 1093 1ff7 20 11010000 ADDD  $109C              f3 10 9c fd 10    17405 
10fe d193 0006 0001 1093 1ff7 20 11011000 STD   $109C              fd 10 9c fc 10    17412 
1101 d193 0006 0001 1093 1ff7 20 11011000 LDD   $10A0              fc 10 a0 c3 00    17418 
1104 0042 0006 0001 1093 1ff7 20 11010000 ADDD  #$0001             c3 00 01 10 83    17424 
1107 0043 0006 0001 1093 1ff7 20 11010000 CMPD  #$15AE             10 83 15 ae 26    17428 
110b 0043 0006 0001 1093 1ff7 20 11011001 BNE   $1112              26 05 8d 0c cc    17433 
1112 0043 0006 0001 1093 1ff7 20 11011001 STD   $10A0              fd 10 a0 30 1f    17436 
1115 0043 0006 0001 1093 1ff7 20 11010001 LEAX  -$1,X              30 1f 26 bd 35    17442 
1117 0043 0005 0001 1093 1ff7 20 11010001 BNE   $10D6              26 bd 35 d6 34    17447 
10d6 0043 0005 0001 1093 1ff7 20 11010001 CLRA                     4f e6 c0 f3 10    17450 
10d7 0043 0005 0001 1093 1ff7 20 11010100 LDB   ,U+                e6 c0 f3 10 9a    17452 
10d9 0053 0005 0001 1094 1ff7 20 11010000 ADDD  $109A              f3 10 9a fd 10    17458 
10dc 857f 0005 0001 1094 1ff7 20 11011000 STD   $109A              fd 10 9a 24 09    17465 
10df 857f 0005 0001 1094 1ff7 20 11011000 BCC   $10EA              24 09 fc 10 98    17471 
10ea 857f 0005 0001 1094 1ff7 20 11011000 LDD   $109A              fc 10 9a f3 10    17474 
10ed 857f 0005 0001 1094 1ff7 20 11011000 ADDD  $109E              f3 10 9e fd 10    17480 
10f0 66f2 0005 0001 1094 1ff7 20 11010011 STD   $109E              fd 10 9e fc 10    17487 
10f3 66f2 0005 0001 1094 1ff7 20 11010001 LDD   $1098              fc 10 98 24 03    17493 
10f6 3781 0005 0001 1094 1ff7 20 11010001 BCC   $10FB              24 03 c3 00 01    17499 
10f8 3781 0005 0001 1094 1ff7 20 11010001 ADDD  #$0001             c3 00 01 f3 10    17502 
10fb 3782 0005 0001 1094 1ff7 20 11010000 ADDD  $109C              f3 10 9c fd 10    17506 
10fe 0915 0005 0001 1094 1ff7 20 11010001 STD   $109C              fd 10 9c fc 10    17513 
1101 0915 0005 0001 1094 1ff7 20 11010001 LDD   $10A0              fc 10 a0 c3 00    17519 
1104 0043 0005 0001 1094 1ff7 20 11010001 ADDD  #$0001             c3 00 01 10 83    17525 
1107 0044 0005 0001 1094 1ff7 20 11010000 CMPD  #$15AE             10 83 15 ae 26    17529 
110b 0044 0005 0001 1094 1ff7 20 11011001 BNE   $1112              26 05 8d 0c cc    17534 
1112 0044 0005 0001 1094 1ff7 20 11011001 STD   $10A0              fd 10 a0 30 1f    17537 
1115 0044 0005 0001 1094 1ff7 20 11010001 LEAX  -$1,X              30 1f 26 bd 35    17543 
1117 0044 0004 0001 1094 1ff7 20 11010001 BNE   $10D6              26 bd 35 d6 34    17548 
10d6 0044 0004 0001 1094 1ff7 20 11010001 CLRA                     4f e6 c0 f3 10    17551 
10d7 0044 0004 0001 1094 1ff7 20 11010100 LDB   ,U+                e6 c0 f3 10 9a    17553 
10d9 0053 0004 0001 1095 1ff7 20 11010000 ADDD  $109A              f3 10 9a fd 10    17559 
10dc 85d2 0004 0001 1095 1ff7 20 11011000 STD   $109A              fd 10 9a 24 09    17566 
10df 85d2 0004 0001 1095 1ff7 20 11011000 BCC   $10EA              24 09 fc 10 98    17572 
10ea 85d2 0004 0001 1095 1ff7 20 11011000 LDD   $109A              fc 10 9a f3 10    17575 
10ed 85d2 0004 0001 1095 1ff7 20 11011000 ADDD  $109E              f3 10 9e fd 10    17581 
10f0 ecc4 0004 0001 1095 1ff7 20 11011000 STD   $109E              fd 10 9e fc 10    17588 
10f3 ecc4 0004 0001 1095 1ff7 20 11011000 LDD   $1098              fc 10 98 24 03    17594 
10f6 3781 0004 0001 1095 1ff7 20 11010000 BCC   $10FB              24 03 c3 00 01    17600 
10fb 3781 0004 0001 1095 1ff7 20 11010000 ADDD  $109C              f3 10 9c fd 10    17603 
10fe 4096 0004 0001 1095 1ff7 20 11010000 STD   $109C              fd 10 9c fc 10    17610 
1101 4096 0004 0001 1095 1ff7 20 11010000 LDD   $10A0              fc 10 a0 c3 00    17616 
1104 0044 0004 0001 1095 1ff7 20 11010000 ADDD  #$0001             c3 00 01 10 83    17622 
1107 0045 0004 0001 1095 1ff7 20 11010000 CMPD  #$15AE             10 83 15 ae 26    17626 
110b 0045 0004 0001 1095 1ff7 20 11011001 BNE   $1112              26 05 8d 0c cc    17631 
1112 0045 0004 0001 1095 1ff7 20 11011001 STD   $10A0              fd 10 a0 30 1f    17634 
1115 0045 0004 0001 1095 1ff7 20 11010001 LEAX  -$1,X              30 1f 26 bd 35    17640 
1117 0045 0003 0001 1095 1ff7 20 11010001 BNE   $10D6              26 bd 35 d6 34    17645 
10d6 0045 0003 0001 1095 1ff7 20 11010001 CLRA                     4f e6 c0 f3 10    17648 
10d7 0045 0003 0001 1095 1ff7 20 11010100 LDB   ,U+                e6 c0 f3 10 9a    17650 
10d9 0053 0003 0001 1096 1ff7 20 11010000 ADDD  $109A              f3 10 9a fd 10    17656 
10dc 8625 0003 0001 1096 1ff7 20 11011000 STD   $109A              fd 10 9a 24 09    17663 
10df 8625 0003 0001 1096 1ff7 20 11011000 BCC   $10EA              24 09 fc 10 98    17669 
10ea 8625 0003 0001 1096 1ff7 20 11011000 LDD   $109A              fc 10 9a f3 10    17672 
10ed 8625 0003 0001 1096 1ff7 20 11011000 ADDD  $109E              f3 10 9e fd 10    17678 
10f0 72e9 0003 0001 1096 1ff7 20 11010011 STD   $109E              fd 10 9e fc 10    17685 
10f3 72e9 0003 0001 1096 1ff7 20 11010001 LDD   $1098              fc 10 98 24 03    17691 
10f6 3781 0003 0001 1096 1ff7 20 11010001 BCC   $10FB              24 03 c3 00 01    17697 
10f8 3781 0003 0001 1096 1ff7 20 11010001 ADDD  #$0001             c3 00 01 f3 10    17700 
10fb 3782 0003 0001 1096 1ff7 20 11010000 ADDD  $109C              f3 10 9c fd 10    17704 
10fe 7818 0003 0001 1096 1ff7 20 11010000 STD   $109C              fd 10 9c fc 10    17711 
1101 7818 0003 0001 1096 1ff7 20 11010000 LDD   $10A0              fc 10 a0 c3 00    17717 
1104 0045 0003 0001 1096 1ff7 20 11010000 ADDD  #$0001             c3 00 01 10 83    17723 
1107 0046 0003 0001 1096 1ff7 20 11010000 CMPD  #$15AE             10 83 15 ae 26    17727 
110b 0046 0003 0001 1096 1ff7 20 11011001 BNE   $1112              26 05 8d 0c cc    17732 
1112 0046 0003 0001 1096 1ff7 20 11011001 STD   $10A0              fd 10 a0 30 1f    17735 
1115 0046 0003 0001 1096 1ff7 20 11010001 LEAX  -$1,X              30 1f 26 bd 35    17741 
1117 0046 0002 0001 1096 1ff7 20 11010001 BNE   $10D6              26 bd 35 d6 34    17746 
10d6 0046 0002 0001 1096 1ff7 20 11010001 CLRA                     4f e6 c0 f3 10    17749 
10d7 0046 0002 0001 1096 1ff7 20 11010100 LDB   ,U+                e6 c0 f3 10 9a    17751 
10d9 0053 0002 0001 1097 1ff7 20 11010000 ADDD  $109A              f3 10 9a fd 10    17757 
10dc 8678 0002 0001 1097 1ff7 20 11011000 STD   $109A              fd 10 9a 24 09    17764 
10df 8678 0002 0001 1097 1ff7 20 11011000 BCC   $10EA              24 09 fc 10 98    17770 
10ea 8678 0002 0001 1097 1ff7 20 11011000 LDD   $109A              fc 10 9a f3 10    17773 
10ed 8678 0002 0001 1097 1ff7 20 11011000 ADDD  $109E              f3 10 9e fd 10    17779 
10f0 f961 0002 0001 1097 1ff7 20 11011000 STD   $109E              fd 10 9e fc 10    17786 
10f3 f961 0002 0001 1097 1ff7 20 11011000 LDD   $1098              fc 10 98 24 03    17792 
10f6 3781 0002 0001 1097 1ff7 20 11010000 BCC   $10FB              24 03 c3 00 01    17798 
10fb 3781 0002 0001 1097 1ff7 20 11010000 ADDD  $109C              f3 10 9c fd 10    17801 
10fe af99 0002 0001 1097 1ff7 20 11011010 STD   $109C              fd 10 9c fc 10    17808 
1101 af99 0002 0001 1097 1ff7 20 11011000 LDD   $10A0              fc 10 a0 c3 00    17814 
1104 0046 0002 0001 1097 1ff7 20 11010000 ADDD  #$0001             c3 00 01 10 83    17820 
1107 0047 0002 0001 1097 1ff7 20 11010000 CMPD  #$15AE             10 83 15 ae 26    17824 
110b 0047 0002 0001 1097 1ff7 20 11011001 BNE   $1112              26 05 8d 0c cc    17829 
1112 0047 0002 0001 1097 1ff7 20 11011001 STD   $10A0              fd 10 a0 30 1f    17832 
1115 0047 0002 0001 1097 1ff7 20 11010001 LEAX  -$1,X              30 1f 26 bd 35    17838 
1117 0047 0001 0001 1097 1ff7 20 11010001 BNE   $10D6              26 bd 35 d6 34    17843 
10d6 0047 0001 0001 1097 1ff7 20 11010001 CLRA                     4f e6 c0 f3 10    17846 
10d7 0047 0001 0001 1097 1ff7 20 11010100 LDB   ,U+                e6 c0 f3 10 9a    17848 
10d9 0053 0001 0001 1098 1ff7 20 11010000 ADDD  $109A              f3 10 9a fd 10    17854 
10dc 86cb 0001 0001 1098 1ff7 20 11011000 STD   $109A              fd 10 9a 24 09    17861 
10df 86cb 0001 0001 1098 1ff7 20 11011000 BCC   $10EA              24 09 fc 10 98    17867 
10ea 86cb 0001 0001 1098 1ff7 20 11011000 LDD   $109A              fc 10 9a f3 10    17870 
10ed 86cb 0001 0001 1098 1ff7 20 11011000 ADDD  $109E              f3 10 9e fd 10    17876 
10f0 802c 0001 0001 1098 1ff7 20 11011001 STD   $109E              fd 10 9e fc 10    17883 
10f3 802c 0001 0001 1098 1ff7 20 11011001 LDD   $1098              fc 10 98 24 03    17889 
10f6 3781 0001 0001 1098 1ff7 20 11010001 BCC   $10FB              24 03 c3 00 01    17895 
10f8 3781 0001 0001 1098 1ff7 20 11010001 ADDD  #$0001             c3 00 01 f3 10    17898 
10fb 3782 0001 0001 1098 1ff7 20 11010000 ADDD  $109C              f3 10 9c fd 10    17902 
10fe e71b 0001 0001 1098 1ff7 20 11011000 STD   $109C              fd 10 9c fc 10    17909 
1101 e71b 0001 0001 1098 1ff7 20 11011000 LDD   $10A0              fc 10 a0 c3 00    17915 
1104 0047 0001 0001 1098 1ff7 20 11010000 ADDD  #$0001             c3 00 01 10 83    17921 
1107 0048 0001 0001 1098 1ff7 20 11010000 CMPD  #$15AE             10 83 15 ae 26    17925 
110b 0048 0001 0001 1098 1ff7 20 11011001 BNE   $1112              26 05 8d 0c cc    17930 
1112 0048 0001 0001 1098 1ff7 20 11011001 STD   $10A0              fd 10 a0 30 1f    17933 
1115 0048 0001 0001 1098 1ff7 20 11010001 LEAX  -$1,X              30 1f 26 bd 35    17939 
1117 0048 0000 0001 1098 1ff7 20 11010101 BNE   $10D6              26 bd 35 d6 34    17944 
1119 0048 0000 0001 1098 1ff7 20 11010101 PULS  A,B,X,U,PC         35 d6 34 50 ce    17947 
1023 94d2 0012 0001 1086 1fff 20 11010101 LDX   #$1086             8e 10 86 ce 10    17960 
1026 94d2 1086 0001 1086 1fff 20 11010001 LDU   #$1087             ce 10 87 a6 80    17963 
1029 94d2 1086 0001 1087 1fff 20 11010001 LDA   ,X+                a6 80 a7 c0 8c    17966 
102b 37d2 1087 0001 1087 1fff 20 11010001 STA   ,U+                a7 c0 8c 10 98    17972 
102d 37d2 1087 0001 1088 1fff 20 11010001 CMPX  #$1098             8c 10 98 26 f7    17978 
1030 37d2 1087 0001 1088 1fff 20 11011001 BNE   $1029              26 f7 bd 11 87    17982 
1029 37d2 1087 0001 1088 1fff 20 11011001 LDA   ,X+                a6 80 a7 c0 8c    17985 
102b 37d2 1088 0001 1088 1fff 20 11010001 STA   ,U+                a7 c0 8c 10 98    17991 
102d 37d2 1088 0001 1089 1fff 20 11010001 CMPX  #$1098             8c 10 98 26 f7    17997 
1030 37d2 1088 0001 1089 1fff 20 11011001 BNE   $1029              26 f7 bd 11 87    18001 
1029 37d2 1088 0001 1089 1fff 20 11011001 LDA   ,X+                a6 80 a7 c0 8c    18004 
102b 37d2 1089 0001 1089 1fff 20 11010001 STA   ,U+                a7 c0 8c 10 98    18010 
102d 37d2 1089 0001 108a 1fff 20 11010001 CMPX  #$1098             8c 10 98 26 f7    18016 
1030 37d2 1089 0001 108a 1fff 20 11011001 BNE   $1029              26 f7 bd 11 87    18020 
1029 37d2 1089 0001 108a 1fff 20 11011001 LDA   ,X+                a6 80 a7 c0 8c    18023 
102b 37d2 108a 0001 108a 1fff 20 11010001 STA   ,U+                a7 c0 8c 10 98    18029 
102d 37d2 108a 0001 108b 1fff 20 11010001 CMPX  #$1098             8c 10 98 26 f7    18035 
1030 37d2 108a 0001 108b 1fff 20 11011001 BNE   $1029              26 f7 bd 11 87    18039 
1029 37d2 108a 0001 108b 1fff 20 11011001 LDA   ,X+                a6 80 a7 c0 8c    18042 
102b 37d2 108b 0001 108b 1fff 20 11010001 STA   ,U+                a7 c0 8c 10 98    18048 
102d 37d2 108b 0001 108c 1fff 20 11010001 CMPX  #$1098             8c 10 98 26 f7    18054 
1030 37d2 108b 0001 108c 1fff 20 11011001 BNE   $1029              26 f7 bd 11 87    18058 
1029 37d2 108b 0001 108c 1fff 20 11011001 LDA   ,X+                a6 80 a7 c0 8c    18061 
102b 37d2 108c 0001 108c 1fff 20 11010001 STA   ,U+                a7 c0 8c 10 98    18067 
102d 37d2 108c 0001 108d 1fff 20 11010001 CMPX  #$1098             8c 10 98 26 f7    18073 
1030 37d2 108c 0001 108d 1fff 20 11011001 BNE   $1029              26 f7 bd 11 87    18077 
1029 37d2 108c 0001 108d 1fff 20 11011001 LDA   ,X+                a6 80 a7 c0 8c    18080 
102b 37d2 108d 0001 108d 1fff 20 11010001 STA   ,U+                a7 c0 8c 10 98    18086 
102d 37d2 108d 0001 108e 1fff 20 11010001 CMPX  #$1098             8c 10 98 26 f7    18092 
1030 37d2 108d 0001 108e 1fff 20 11011001 BNE   $1029              26 f7 bd 11 87    18096 
1029 37d2 108d 0001 108e 1fff 20 11011001 LDA   ,X+                a6 80 a7 c0 8c    18099 
102b 37d2 108e 0001 108e 1fff 20 11010001 STA   ,U+                a7 c0 8c 10 98    18105 
102d 37d2 108e 0001 108f 1fff 20 11010001 CMPX  #$1098             8c 10 98 26 f7    18111 
1030 37d2 108e 0001 108f 1fff 20 11011001 BNE   $1029              26 f7 bd 11 87    18115 
1029 37d2 108e 0001 108f 1fff 20 11011001 LDA   ,X+                a6 80 a7 c0 8c    18118 
102b 37d2 108f 0001 108f 1fff 20 11010001 STA   ,U+                a7 c0 8c 10 98    18124 
102d 37d2 108f 0001 1090 1fff 20 11010001 CMPX  #$1098             8c 10 98 26 f7    18130 
1030 37d2 108f 0001 1090 1fff 20 11011001 BNE   $1029              26 f7 bd 11 87    18134 
1029 37d2 108f 0001 1090 1fff 20 11011001 LDA   ,X+                a6 80 a7 c0 8c    18137 
102b 37d2 1090 0001 1090 1fff 20 11010001 STA   ,U+                a7 c0 8c 10 98    18143 
102d 37d2 1090 0001 1091 1fff 20 11010001 CMPX  #$1098             8c 10 98 26 f7    18149 
1030 37d2 1090 0001 1091 1fff 20 11011001 BNE   $1029              26 f7 bd 11 87    18153 
1029 37d2 1090 0001 1091 1fff 20 11011001 LDA   ,X+                a6 80 a7 c0 8c    18156 
102b 37d2 1091 0001 1091 1fff 20 11010001 STA   ,U+                a7 c0 8c 10 98    18162 
102d 37d2 1091 0001 1092 1fff 20 11010001 CMPX  #$1098             8c 10 98 26 f7    18168 
1030 37d2 1091 0001 1092 1fff 20 11011001 BNE   $1029              26 f7 bd 11 87    18172 
1029 37d2 1091 0001 1092 1fff 20 11011001 LDA   ,X+                a6 80 a7 c0 8c    18175 
102b 37d2 1092 0001 1092 1fff 20 11010001 STA   ,U+                a7 c0 8c 10 98    18181 
102d 37d2 1092 0001 1093 1fff 20 11010001 CMPX  #$1098             8c 10 98 26 f7    18187 
1030 37d2 1092 0001 1093 1fff 20 11011001 BNE   $1029              26 f7 bd 11 87    18191 
1029 37d2 1092 0001 1093 1fff 20 11011001 LDA   ,X+                a6 80 a7 c0 8c    18194 
102b 37d2 1093 0001 1093 1fff 20 11010001 STA   ,U+                a7 c0 8c 10 98    18200 
102d 37d2 1093 0001 1094 1fff 20 11010001 CMPX  #$1098             8c 10 98 26 f7    18206 
1030 37d2 1093 0001 1094 1fff 20 11011001 BNE   $1029              26 f7 bd 11 87    18210 
1029 37d2 1093 0001 1094 1fff 20 11011001 LDA   ,X+                a6 80 a7 c0 8c    18213 
102b 37d2 1094 0001 1094 1fff 20 11010001 STA   ,U+                a7 c0 8c 10 98    18219 
102d 37d2 1094 0001 1095 1fff 20 11010001 CMPX  #$1098             8c 10 98 26 f7    18225 
1030 37d2 1094 0001 1095 1fff 20 11011001 BNE   $1029              26 f7 bd 11 87    18229 
1029 37d2 1094 0001 1095 1fff 20 11011001 LDA   ,X+                a6 80 a7 c0 8c    18232 
102b 37d2 1095 0001 1095 1fff 20 11010001 STA   ,U+                a7 c0 8c 10 98    18238 
102d 37d2 1095 0001 1096 1fff 20 11010001 CMPX  #$1098             8c 10 98 26 f7    18244 
1030 37d2 1095 0001 1096 1fff 20 11011001 BNE   $1029              26 f7 bd 11 87    18248 
1029 37d2 1095 0001 1096 1fff 20 11011001 LDA   ,X+                a6 80 a7 c0 8c    18251 
102b 37d2 1096 0001 1096 1fff 20 11010001 STA   ,U+                a7 c0 8c 10 98    18257 
102d 37d2 1096 0001 1097 1fff 20 11010001 CMPX  #$1098             8c 10 98 26 f7    18263 
1030 37d2 1096 0001 1097 1fff 20 11011001 BNE   $1029              26 f7 bd 11 87    18267 
1029 37d2 1096 0001 1097 1fff 20 11011001 LDA   ,X+                a6 80 a7 c0 8c    18270 
102b 37d2 1097 0001 1097 1fff 20 11010001 STA   ,U+                a7 c0 8c 10 98    18276 
102d 37d2 1097 0001 1098 1fff 20 11010001 CMPX  #$1098             8c 10 98 26 f7    18282 
1030 37d2 1097 0001 1098 1fff 20 11011001 BNE   $1029              26 f7 bd 11 87    18286 
1029 37d2 1097 0001 1098 1fff 20 11011001 LDA   ,X+                a6 80 a7 c0 8c    18289 
102b 37d2 1098 0001 1098 1fff 20 11010001 STA   ,U+                a7 c0 8c 10 98    18295 
102d 37d2 1098 0001 1099 1fff 20 11010001 CMPX  #$1098             8c 10 98 26 f7    18301 
1030 37d2 1098 0001 1099 1fff 20 11010100 BNE   $1029              26 f7 bd 11 87    18305 
1032 37d2 1098 0001 1099 1fff 20 11010100 JSR   $1187              bd 11 87 8e 10    18308 
1187 37d2 1098 0001 1099 1ffd 20 11010100 LDD   $10A0              fc 10 a0 27 02    18316 
118a 0048 1098 0001 1099 1ffd 20 11010000 BEQ   $118E              27 02 8d 8d fc    18322 
118c 0048 1098 0001 1099 1ffd 20 11010000 BSR   $111B              8d 8d fc 10 9e    18325 
111b 0048 1098 0001 1099 1ffb 20 11010000 PSHS  U,X                34 50 ce 10 98    18332 
111d 0048 1098 0001 1099 1ff7 20 11010000 LDU   #$1098             ce 10 98 8e ff    18341 
1120 0048 1098 0001 1098 1ff7 20 11010000 LDX   #$FFF1             8e ff f1 8d 07    18344 
1123 0048 fff1 0001 1098 1ff7 20 11011000 BSR   $112C              8d 07 ce 10 9c    18347 
112c 0048 fff1 0001 1098 1ff5 20 11011000 PSHS  X,B,A              34 16 9f 02 8e    18354 
112e 0048 fff1 0001 1098 1ff1 20 11011000 STX   <$02               9f 02 8e 00 00    18363 
1130 0048 fff1 0001 1098 1ff1 20 11011000 LDX   #$0000             8e 00 00 9f 00    18368 
1133 0048 0000 0001 1098 1ff1 20 11010100 STX   <$00               9f 00 ec c4 10    18371 
1135 0048 0000 0001 1098 1ff1 20 11010100 LDD   ,U                 ec c4 10 93 00    18376 
1137 3781 0000 0001 1098 1ff1 20 11010000 CMPD  <$00               10 93 00 22 0b    18381 
113a 3781 0000 0001 1098 1ff1 20 11010000 BHI   $1147              22 0b 25 15 ec    18388 
1147 3781 0000 0001 1098 1ff1 20 11010000 ASL   <$03               08 03 09 02 09    18391 
1149 3781 0000 0001 1098 1ff1 20 11011001 ROL   <$02               09 02 09 01 09    18397 
114b 3781 0000 0001 1098 1ff1 20 11011001 ROL   <$01               09 01 09 00 30    18403 
114d 3781 0000 0001 1098 1ff1 20 11010000 ROL   <$00               09 00 30 01 20    18409 
114f 3781 0000 0001 1098 1ff1 20 11010100 LEAX  $1,X               30 01 20 e2 8c    18415 
1151 3781 0001 0001 1098 1ff1 20 11010000 BRA   $1135              20 e2 8c 00 00    18420 
1135 3781 0001 0001 1098 1ff1 20 11010000 LDD   ,U                 ec c4 10 93 00    18423 
1137 3781 0001 0001 1098 1ff1 20 11010000 CMPD  <$00               10 93 00 22 0b    18428 
113a 3781 0001 0001 1098 1ff1 20 11010000 BHI   $1147              22 0b 25 15 ec    18435 
1147 3781 0001 0001 1098 1ff1 20 11010000 ASL   <$03               08 03 09 02 09    18438 
1149 3781 0001 0001 1098 1ff1 20 11011001 ROL   <$02               09 02 09 01 09    18444 
114b 3781 0001 0001 1098 1ff1 20 11011001 ROL   <$01               09 01 09 00 30    18450 
114d 3781 0001 0001 1098 1ff1 20 11010000 ROL   <$00               09 00 30 01 20    18456 
114f 3781 0001 0001 1098 1ff1 20 11010100 LEAX  $1,X               30 01 20 e2 8c    18462 
1151 3781 0002 0001 1098 1ff1 20 11010000 BRA   $1135              20 e2 8c 00 00    18467 
1135 3781 0002 0001 1098 1ff1 20 11010000 LDD   ,U                 ec c4 10 93 00    18470 
1137 3781 0002 0001 1098 1ff1 20 11010000 CMPD  <$00               10 93 00 22 0b    18475 
113a 3781 0002 0001 1098 1ff1 20 11010000 BHI   $1147              22 0b 25 15 ec    18482 
1147 3781 0002 0001 1098 1ff1 20 11010000 ASL   <$03               08 03 09 02 09    18485 
1149 3781 0002 0001 1098 1ff1 20 11011001 ROL   <$02               09 02 09 01 09    18491 
114b 3781 0002 0001 1098 1ff1 20 11011001 ROL   <$01               09 01 09 00 30    18497 
114d 3781 0002 0001 1098 1ff1 20 11010000 ROL   <$00               09 00 30 01 20    18503 
114f 3781 0002 0001 1098 1ff1 20 11010100 LEAX  $1,X               30 01 20 e2 8c    18509 
1151 3781 0003 0001 1098 1ff1 20 11010000 BRA   $1135              20 e2 8c 00 00    18514 
1135 3781 0003 0001 1098 1ff1 20 11010000 LDD   ,U                 ec c4 10 93 00    18517 
1137 3781 0003 0001 1098 1ff1 20 11010000 CMPD  <$00               10 93 00 22 0b    18522 
113a 3781 0003 0001 1098 1ff1 20 11010000 BHI   $1147              22 0b 25 15 ec    18529 
1147 3781 0003 0001 1098 1ff1 20 11010000 ASL   <$03               08 03 09 02 09    18532 
1149 3781 0003 0001 1098 1ff1 20 11010011 ROL   <$02               09 02 09 01 09    18538 
114b 3781 0003 0001 1098 1ff1 20 11011001 ROL   <$01               09 01 09 00 30    18544 
114d 3781 0003 0001 1098 1ff1 20 11010000 ROL   <$00               09 00 30 01 20    18550 
114f 3781 0003 0001 1098 1ff1 20 11010100 LEAX  $1,X               30 01 20 e2 8c    18556 
1151 3781 0004 0001 1098 1ff1 20 11010000 BRA   $1135              20 e2 8c 00 00    18561 
1135 3781 0004 0001 1098 1ff1 20 11010000 LDD   ,U                 ec c4 10 93 00    18564 
1137 3781 0004 0001 1098 1ff1 20 11010000 CMPD  <$00               10 93 00 22 0b    18569 
113a 3781 0004 0001 1098 1ff1 20 11010000 BHI   $1147              22 0b 25 15 ec    18576 
1147 3781 0004 0001 1098 1ff1 20 11010000 ASL   <$03               08 03 09 02 09    18579 
1149 3781 0004 0001 1098 1ff1 20 11010000 ROL   <$02               09 02 09 01 09    18585 
114b 3781 0004 0001 1098 1ff1 20 11011001 ROL   <$01               09 01 09 00 30    18591 
114d 3781 0004 0001 1098 1ff1 20 11010000 ROL   <$00               09 00 30 01 20    18597 
114f 3781 0004 0001 1098 1ff1 20 11010100 LEAX  $1,X               30 01 20 e2 8c    18603 
1151 3781 0005 0001 1098 1ff1 20 11010000 BRA   $1135              20 e2 8c 00 00    18608 
1135 3781 0005 0001 1098 1ff1 20 11010000 LDD   ,U                 ec c4 10 93 00    18611 
1137 3781 0005 0001 1098 1ff1 20 11010000 CMPD  <$00               10 93 00 22 0b    18616 
113a 3781 0005 0001 1098 1ff1 20 11010000 BHI   $1147              22 0b 25 15 ec    18623 
1147 3781 0005 0001 1098 1ff1 20 11010000 ASL   <$03               08 03 09 02 09    18626 
1149 3781 0005 0001 1098 1ff1 20 11010000 ROL   <$02               09 02 09 01 09    18632 
114b 3781 0005 0001 1098 1ff1 20 11011001 ROL   <$01               09 01 09 00 30    18638 
114d 3781 0005 0001 1098 1ff1 20 11010000 ROL   <$00               09 00 30 01 20    18644 
114f 3781 0005 0001 1098 1ff1 20 11010100 LEAX  $1,X               30 01 20 e2 8c    18650 
1151 3781 0006 0001 1098 1ff1 20 11010000 BRA   $1135              20 e2 8c 00 00    18655 
1135 3781 0006 0001 1098 1ff1 20 11010000 LDD   ,U                 ec c4 10 93 00    18658 
1137 3781 0006 0001 1098 1ff1 20 11010000 CMPD  <$00               10 93 00 22 0b    18663 
113a 3781 0006 0001 1098 1ff1 20 11010000 BHI   $1147              22 0b 25 15 ec    18670 
1147 3781 0006 0001 1098 1ff1 20 11010000 ASL   <$03               08 03 09 02 09    18673 
1149 3781 0006 0001 1098 1ff1 20 11011010 ROL   <$02               09 02 09 01 09    18679 
114b 3781 0006 0001 1098 1ff1 20 11011001 ROL   <$01               09 01 09 00 30    18685 
114d 3781 0006 0001 1098 1ff1 20 11010000 ROL   <$00               09 00 30 01 20    18691 
114f 3781 0006 0001 1098 1ff1 20 11010100 LEAX  $1,X               30 01 20 e2 8c    18697 
1151 3781 0007 0001 1098 1ff1 20 11010000 BRA   $1135              20 e2 8c 00 00    18702 
1135 3781 0007 0001 1098 1ff1 20 11010000 LDD   ,U                 ec c4 10 93 00    18705 
1137 3781 0007 0001 1098 1ff1 20 11010000 CMPD  <$00               10 93 00 22 0b    18710 
113a 3781 0007 0001 1098 1ff1 20 11010000 BHI   $1147              22 0b 25 15 ec    18717 
1147 3781 0007 0001 1098 1ff1 20 11010000 ASL   <$03               08 03 09 02 09    18720 
1149 3781 0007 0001 1098 1ff1 20 11010111 ROL   <$02               09 02 09 01 09    18726 
114b 3781 0007 0001 1098 1ff1 20 11011001 ROL   <$01               09 01 09 00 30    18732 
114d 3781 0007 0001 1098 1ff1 20 11011010 ROL   <$00               09 00 30 01 20    18738 
114f 3781 0007 0001 1098 1ff1 20 11010100 LEAX  $1,X               30 01 20 e2 8c    18744 
1151 3781 0008 0001 1098 1ff1 20 11010000 BRA   $1135              20 e2 8c 00 00    18749 
1135 3781 0008 0001 1098 1ff1 20 11010000 LDD   ,U                 ec c4 10 93 00    18752 
1137 3781 0008 0001 1098 1ff1 20 11010000 CMPD  <$00               10 93 00 22 0b    18757 
113a 3781 0008 0001 1098 1ff1 20 11010000 BHI   $1147              22 0b 25 15 ec    18764 
1147 3781 0008 0001 1098 1ff1 20 11010000 ASL   <$03               08 03 09 02 09    18767 
1149 3781 0008 0001 1098 1ff1 20 11010100 ROL   <$02               09 02 09 01 09    18773 
114b 3781 0008 0001 1098 1ff1 20 11011001 ROL   <$01               09 01 09 00 30    18779 
114d 3781 0008 0001 1098 1ff1 20 11011001 ROL   <$00               09 00 30 01 20    18785 
114f 3781 0008 0001 1098 1ff1 20 11010000 LEAX  $1,X               30 01 20 e2 8c    18791 
1151 3781 0009 0001 1098 1ff1 20 11010000 BRA   $1135              20 e2 8c 00 00    18796 
1135 3781 0009 0001 1098 1ff1 20 11010000 LDD   ,U                 ec c4 10 93 00    18799 
1137 3781 0009 0001 1098 1ff1 20 11010000 CMPD  <$00               10 93 00 22 0b    18804 
113a 3781 0009 0001 1098 1ff1 20 11010000 BHI   $1147              22 0b 25 15 ec    18811 
1147 3781 0009 0001 1098 1ff1 20 11010000 ASL   <$03               08 03 09 02 09    18814 
1149 3781 0009 0001 1098 1ff1 20 11010100 ROL   <$02               09 02 09 01 09    18820 
114b 3781 0009 0001 1098 1ff1 20 11011001 ROL   <$01               09 01 09 00 30    18826 
114d 3781 0009 0001 1098 1ff1 20 11011001 ROL   <$00               09 00 30 01 20    18832 
114f 3781 0009 0001 1098 1ff1 20 11010000 LEAX  $1,X               30 01 20 e2 8c    18838 
1151 3781 000a 0001 1098 1ff1 20 11010000 BRA   $1135              20 e2 8c 00 00    18843 
1135 3781 000a 0001 1098 1ff1 20 11010000 LDD   ,U                 ec c4 10 93 00    18846 
1137 3781 000a 0001 1098 1ff1 20 11010000 CMPD  <$00               10 93 00 22 0b    18851 
113a 3781 000a 0001 1098 1ff1 20 11010000 BHI   $1147              22 0b 25 15 ec    18858 
1147 3781 000a 0001 1098 1ff1 20 11010000 ASL   <$03               08 03 09 02 09    18861 
1149 3781 000a 0001 1098 1ff1 20 11010100 ROL   <$02               09 02 09 01 09    18867 
114b 3781 000a 0001 1098 1ff1 20 11011001 ROL   <$01               09 01 09 00 30    18873 
114d 3781 000a 0001 1098 1ff1 20 11011001 ROL   <$00               09 00 30 01 20    18879 
114f 3781 000a 0001 1098 1ff1 20 11010000 LEAX  $1,X               30 01 20 e2 8c    18885 
1151 3781 000b 0001 1098 1ff1 20 11010000 BRA   $1135              20 e2 8c 00 00    18890 
1135 3781 000b 0001 1098 1ff1 20 11010000 LDD   ,U                 ec c4 10 93 00    18893 
1137 3781 000b 0001 1098 1ff1 20 11010000 CMPD  <$00               10 93 00 22 0b    18898 
113a 3781 000b 0001 1098 1ff1 20 11010000 BHI   $1147              22 0b 25 15 ec    18905 
1147 3781 000b 0001 1098 1ff1 20 11010000 ASL   <$03               08 03 09 02 09    18908 
1149 3781 000b 0001 1098 1ff1 20 11010100 ROL   <$02               09 02 09 01 09    18914 
114b 3781 000b 0001 1098 1ff1 20 11010011 ROL   <$01               09 01 09 00 30    18920 
114d 3781 000b 0001 1098 1ff1 20 11011001 ROL   <$00               09 00 30 01 20    18926 
114f 3781 000b 0001 1098 1ff1 20 11010000 LEAX  $1,X               30 01 20 e2 8c    18932 
1151 3781 000c 0001 1098 1ff1 20 11010000 BRA   $1135              20 e2 8c 00 00    18937 
1135 3781 000c 0001 1098 1ff1 20 11010000 LDD   ,U                 ec c4 10 93 00    18940 
1137 3781 000c 0001 1098 1ff1 20 11010000 CMPD  <$00               10 93 00 22 0b    18945 
113a 3781 000c 0001 1098 1ff1 20 11010000 BHI   $1147              22 0b 25 15 ec    18952 
1147 3781 000c 0001 1098 1ff1 20 11010000 ASL   <$03               08 03 09 02 09    18955 
1149 3781 000c 0001 1098 1ff1 20 11010100 ROL   <$02               09 02 09 01 09    18961 
114b 3781 000c 0001 1098 1ff1 20 11010000 ROL   <$01               09 01 09 00 30    18967 
114d 3781 000c 0001 1098 1ff1 20 11011001 ROL   <$00               09 00 30 01 20    18973 
114f 3781 000c 0001 1098 1ff1 20 11010000 LEAX  $1,X               30 01 20 e2 8c    18979 
1151 3781 000d 0001 1098 1ff1 20 11010000 BRA   $1135              20 e2 8c 00 00    18984 
1135 3781 000d 0001 1098 1ff1 20 11010000 LDD   ,U                 ec c4 10 93 00    18987 
1137 3781 000d 0001 1098 1ff1 20 11010000 CMPD  <$00               10 93 00 22 0b    18992 
113a 3781 000d 0001 1098 1ff1 20 11010000 BHI   $1147              22 0b 25 15 ec    18999 
1147 3781 000d 0001 1098 1ff1 20 11010000 ASL   <$03               08 03 09 02 09    19002 
1149 3781 000d 0001 1098 1ff1 20 11010100 ROL   <$02               09 02 09 01 09    19008 
114b 3781 000d 0001 1098 1ff1 20 11010000 ROL   <$01               09 01 09 00 30    19014 
114d 3781 000d 0001 1098 1ff1 20 11011001 ROL   <$00               09 00 30 01 20    19020 
114f 3781 000d 0001 1098 1ff1 20 11010000 LEAX  $1,X               30 01 20 e2 8c    19026 
1151 3781 000e 0001 1098 1ff1 20 11010000 BRA   $1135              20 e2 8c 00 00    19031 
1135 3781 000e 0001 1098 1ff1 20 11010000 LDD   ,U                 ec c4 10 93 00    19034 
1137 3781 000e 0001 1098 1ff1 20 11010000 CMPD  <$00               10 93 00 22 0b    19039 
113a 3781 000e 0001 1098 1ff1 20 11011001 BHI   $1147              22 0b 25 15 ec    19046 
113c 3781 000e 0001 1098 1ff1 20 11011001 BCS   $1153              25 15 ec 42 10    19049 
1153 3781 000e 0001 1098 1ff1 20 11011001 CMPX  #$0000             8c 00 00 27 2d    19052 
1156 3781 000e 0001 1098 1ff1 20 11010000 BEQ   $1185              27 2d 04 00 06    19056 
1158 3781 000e 0001 1098 1ff1 20 11010000 LSR   <$00               04 00 06 01 06    19059 
115a 3781 000e 0001 1098 1ff1 20 11010001 ROR   <$01               06 01 06 02 06    19065 
115c 3781 000e 0001 1098 1ff1 20 11011000 ROR   <$02               06 02 06 03 dc    19071 
115e 3781 000e 0001 1098 1ff1 20 11010000 ROR   <$03               06 03 dc 00 10    19077 
1160 3781 000e 0001 1098 1ff1 20 11010100 LDD   <$00               dc 00 10 a3 c4    19083 
1162 1ffe 000e 0001 1098 1ff1 20 11010000 CMPD  ,U                 10 a3 c4 25 09    19088 
1165 1ffe 000e 0001 1098 1ff1 20 11011001 BCS   $1170              25 09 22 18 dc    19095 
1170 1ffe 000e 0001 1098 1ff1 20 11011001 LDD   $2,U               ec 42 93 02 ed    19098 
1172 86cb 000e 0001 1098 1ff1 20 11011001 SUBD  <$02               93 02 ed 42 ec    19104 
1174 66cb 000e 0001 1098 1ff1 20 11010010 STD   $2,U               ed 42 ec c4 24    19110 
1176 66cb 000e 0001 1098 1ff1 20 11010000 LDD   ,U                 ec c4 24 03 83    19116 
1178 3781 000e 0001 1098 1ff1 20 11010000 BCC   $117D              24 03 83 00 01    19121 
117d 3781 000e 0001 1098 1ff1 20 11010000 SUBD  <$00               93 00 ed c4 30    19124 
117f 1783 000e 0001 1098 1ff1 20 11010000 STD   ,U                 ed c4 30 1f 26    19130 
1181 1783 000e 0001 1098 1ff1 20 11010000 LEAX  -$1,X              30 1f 26 d3 35    19135 
1183 1783 000d 0001 1098 1ff1 20 11010000 BNE   $1158              26 d3 35 96 fc    19140 
1158 1783 000d 0001 1098 1ff1 20 11010000 LSR   <$00               04 00 06 01 06    19143 
115a 1783 000d 0001 1098 1ff1 20 11010001 ROR   <$01               06 01 06 02 06    19149 
115c 1783 000d 0001 1098 1ff1 20 11011000 ROR   <$02               06 02 06 03 dc    19155 
115e 1783 000d 0001 1098 1ff1 20 11010000 ROR   <$03               06 03 dc 00 10    19161 
1160 1783 000d 0001 1098 1ff1 20 11010100 LDD   <$00               dc 00 10 a3 c4    19167 
1162 0fff 000d 0001 1098 1ff1 20 11010000 CMPD  ,U                 10 a3 c4 25 09    19172 
1165 0fff 000d 0001 1098 1ff1 20 11011001 BCS   $1170              25 09 22 18 dc    19179 
1170 0fff 000d 0001 1098 1ff1 20 11011001 LDD   $2,U               ec 42 93 02 ed    19182 
1172 66cb 000d 0001 1098 1ff1 20 11010001 SUBD  <$02               93 02 ed 42 ec    19188 
1174 56cb 000d 0001 1098 1ff1 20 11010000 STD   $2,U               ed 42 ec c4 24    19194 
1176 56cb 000d 0001 1098 1ff1 20 11010000 LDD   ,U                 ec c4 24 03 83    19200 
1178 1783 000d 0001 1098 1ff1 20 11010000 BCC   $117D              24 03 83 00 01    19205 
117d 1783 000d 0001 1098 1ff1 20 11010000 SUBD  <$00               93 00 ed c4 30    19208 
117f 0784 000d 0001 1098 1ff1 20 11010000 STD   ,U                 ed c4 30 1f 26    19214 
1181 0784 000d 0001 1098 1ff1 20 11010000 LEAX  -$1,X              30 1f 26 d3 35    19219 
1183 0784 000c 0001 1098 1ff1 20 11010000 BNE   $1158              26 d3 35 96 fc    19224 
1158 0784 000c 0001 1098 1ff1 20 11010000 LSR   <$00               04 00 06 01 06    19227 
115a 0784 000c 0001 1098 1ff1 20 11010001 ROR   <$01               06 01 06 02 06    19233 
115c 0784 000c 0001 1098 1ff1 20 11011001 ROR   <$02               06 02 06 03 dc    19239 
115e 0784 000c 0001 1098 1ff1 20 11011000 ROR   <$03               06 03 dc 00 10    19245 
1160 0784 000c 0001 1098 1ff1 20 11010100 LDD   <$00               dc 00 10 a3 c4    19251 
1162 07ff 000c 0001 1098 1ff1 20 11010000 CMPD  ,U                 10 a3 c4 25 09    19256 
1165 07ff 000c 0001 1098 1ff1 20 11010000 BCS   $1170              25 09 22 18 dc    19263 
1167 07ff 000c 0001 1098 1ff1 20 11010000 BHI   $1181              22 18 dc 02 10    19266 
1181 07ff 000c 0001 1098 1ff1 20 11010000 LEAX  -$1,X              30 1f 26 d3 35    19269 
1183 07ff 000b 0001 1098 1ff1 20 11010000 BNE   $1158              26 d3 35 96 fc    19274 
1158 07ff 000b 0001 1098 1ff1 20 11010000 LSR   <$00               04 00 06 01 06    19277 
115a 07ff 000b 0001 1098 1ff1 20 11010001 ROR   <$01               06 01 06 02 06    19283 
115c 07ff 000b 0001 1098 1ff1 20 11011001 ROR   <$02               06 02 06 03 dc    19289 
115e 07ff 000b 0001 1098 1ff1 20 11011000 ROR   <$03               06 03 dc 00 10    19295 
1160 07ff 000b 0001 1098 1ff1 20 11010100 LDD   <$00               dc 00 10 a3 c4    19301 
1162 03ff 000b 0001 1098 1ff1 20 11010000 CMPD  ,U                 10 a3 c4 25 09    19306 
1165 03ff 000b 0001 1098 1ff1 20 11011001 BCS   $1170              25 09 22 18 dc    19313 
1170 03ff 000b 0001 1098 1ff1 20 11011001 LDD   $2,U               ec 42 93 02 ed    19316 
1172 56cb 000b 0001 1098 1ff1 20 11010001 SUBD  <$02               93 02 ed 42 ec    19322 
1174 92cb 000b 0001 1098 1ff1 20 11011011 STD   $2,U               ed 42 ec c4 24    19328 
1176 92cb 000b 0001 1098 1ff1 20 11011001 LDD   ,U                 ec c4 24 03 83    19334 
1178 0784 000b 0001 1098 1ff1 20 11010001 BCC   $117D              24 03 83 00 01    19339 
117a 0784 000b 0001 1098 1ff1 20 11010001 SUBD  #$0001             83 00 01 93 00    19342 
117d 0783 000b 0001 1098 1ff1 20 11010000 SUBD  <$00               93 00 ed c4 30    19346 
117f 0384 000b 0001 1098 1ff1 20 11010000 STD   ,U                 ed c4 30 1f 26    19352 
1181 0384 000b 0001 1098 1ff1 20 11010000 LEAX  -$1,X              30 1f 26 d3 35    19357 
1183 0384 000a 0001 1098 1ff1 20 11010000 BNE   $1158              26 d3 35 96 fc    19362 
1158 0384 000a 0001 1098 1ff1 20 11010000 LSR   <$00               04 00 06 01 06    19365 
115a 0384 000a 0001 1098 1ff1 20 11010001 ROR   <$01               06 01 06 02 06    19371 
115c 0384 000a 0001 1098 1ff1 20 11011001 ROR   <$02               06 02 06 03 dc    19377 
115e 0384 000a 0001 1098 1ff1 20 11011000 ROR   <$03               06 03 dc 00 10    19383 
1160 0384 000a 0001 1098 1ff1 20 11010100 LDD   <$00               dc 00 10 a3 c4    19389 
1162 01ff 000a 0001 1098 1ff1 20 11010000 CMPD  ,U                 10 a3 c4 25 09    19394 
1165 01ff 000a 0001 1098 1ff1 20 11011001 BCS   $1170              25 09 22 18 dc    19401 
1170 01ff 000a 0001 1098 1ff1 20 11011001 LDD   $2,U               ec 42 93 02 ed    19404 
1172 92cb 000a 0001 1098 1ff1 20 11011001 SUBD  <$02               93 02 ed 42 ec    19410 
1174 b0cb 000a 0001 1098 1ff1 20 11011001 STD   $2,U               ed 42 ec c4 24    19416 
1176 b0cb 000a 0001 1098 1ff1 20 11011001 LDD   ,U                 ec c4 24 03 83    19422 
1178 0384 000a 0001 1098 1ff1 20 11010001 BCC   $117D              24 03 83 00 01    19427 
117a 0384 000a 0001 1098 1ff1 20 11010001 SUBD  #$0001             83 00 01 93 00    19430 
117d 0383 000a 0001 1098 1ff1 20 11010000 SUBD  <$00               93 00 ed c4 30    19434 
117f 0184 000a 0001 1098 1ff1 20 11010000 STD   ,U                 ed c4 30 1f 26    19440 
1181 0184 000a 0001 1098 1ff1 20 11010000 LEAX  -$1,X              30 1f 26 d3 35    19445 
1183 0184 0009 0001 1098 1ff1 20 11010000 BNE   $1158              26 d3 35 96 fc    19450 
1158 0184 0009 0001 1098 1ff1 20 11010000 LSR   <$00               04 00 06 01 06    19453 
115a 0184 0009 0001 1098 1ff1 20 11010101 ROR   <$01               06 01 06 02 06    19459 
115c 0184 0009 0001 1098 1ff1 20 11011001 ROR   <$02               06 02 06 03 dc    19465 
115e 0184 0009 0001 1098 1ff1 20 11011000 ROR   <$03               06 03 dc 00 10    19471 
1160 0184 0009 0001 1098 1ff1 20 11010100 LDD   <$00               dc 00 10 a3 c4    19477 
1162 00ff 0009 0001 1098 1ff1 20 11010000 CMPD  ,U                 10 a3 c4 25 09    19482 
1165 00ff 0009 0001 1098 1ff1 20 11011001 BCS   $1170              25 09 22 18 dc    19489 
1170 00ff 0009 0001 1098 1ff1 20 11011001 LDD   $2,U               ec 42 93 02 ed    19492 
1172 b0cb 0009 0001 1098 1ff1 20 11011001 SUBD  <$02               93 02 ed 42 ec    19498 
1174 bfcb 0009 0001 1098 1ff1 20 11011001 STD   $2,U               ed 42 ec c4 24    19504 
1176 bfcb 0009 0001 1098 1ff1 20 11011001 LDD   ,U                 ec c4 24 03 83    19510 
1178 0184 0009 0001 1098 1ff1 20 11010001 BCC   $117D              24 03 83 00 01    19515 
117a 0184 0009 0001 1098 1ff1 20 11010001 SUBD  #$0001             83 00 01 93 00    19518 
117d 0183 0009 0001 1098 1ff1 20 11010000 SUBD  <$00               93 00 ed c4 30    19522 
117f 0084 0009 0001 1098 1ff1 20 11010000 STD   ,U                 ed c4 30 1f 26    19528 
1181 0084 0009 0001 1098 1ff1 20 11010000 LEAX  -$1,X              30 1f 26 d3 35    19533 
1183 0084 0008 0001 1098 1ff1 20 11010000 BNE   $1158              26 d3 35 96 fc    19538 
1158 0084 0008 0001 1098 1ff1 20 11010000 LSR   <$00               04 00 06 01 06    19541 
115a 0084 0008 0001 1098 1ff1 20 11010100 ROR   <$01               06 01 06 02 06    19547 
115c 0084 0008 0001 1098 1ff1 20 11010001 ROR   <$02               06 02 06 03 dc    19553 
115e 0084 0008 0001 1098 1ff1 20 11011001 ROR   <$03               06 03 dc 00 10    19559 
1160 0084 0008 0001 1098 1ff1 20 11011000 LDD   <$00               dc 00 10 a3 c4    19565 
1162 007f 0008 0001 1098 1ff1 20 11010000 CMPD  ,U                 10 a3 c4 25 09    19570 
1165 007f 0008 0001 1098 1ff1 20 11011001 BCS   $1170              25 09 22 18 dc    19577 
1170 007f 0008 0001 1098 1ff1 20 11011001 LDD   $2,U               ec 42 93 02 ed    19580 
1172 bfcb 0008 0001 1098 1ff1 20 11011001 SUBD  <$02               93 02 ed 42 ec    19586 
1174 c74b 0008 0001 1098 1ff1 20 11011001 STD   $2,U               ed 42 ec c4 24    19592 
1176 c74b 0008 0001 1098 1ff1 20 11011001 LDD   ,U                 ec c4 24 03 83    19598 
1178 0084 0008 0001 1098 1ff1 20 11010001 BCC   $117D              24 03 83 00 01    19603 
117a 0084 0008 0001 1098 1ff1 20 11010001 SUBD  #$0001             83 00 01 93 00    19606 
117d 0083 0008 0001 1098 1ff1 20 11010000 SUBD  <$00               93 00 ed c4 30    19610 
117f 0004 0008 0001 1098 1ff1 20 11010000 STD   ,U                 ed c4 30 1f 26    19616 
1181 0004 0008 0001 1098 1ff1 20 11010000 LEAX  -$1,X              30 1f 26 d3 35    19621 
1183 0004 0007 0001 1098 1ff1 20 11010000 BNE   $1158              26 d3 35 96 fc    19626 
1158 0004 0007 0001 1098 1ff1 20 11010000 LSR   <$00               04 00 06 01 06    19629 
115a 0004 0007 0001 1098 1ff1 20 11010100 ROR   <$01               06 01 06 02 06    19635 
115c 0004 0007 0001 1098 1ff1 20 11010001 ROR   <$02               06 02 06 03 dc    19641 
115e 0004 0007 0001 1098 1ff1 20 11011000 ROR   <$03               06 03 dc 00 10    19647 
1160 0004 0007 0001 1098 1ff1 20 11010000 LDD   <$00               dc 00 10 a3 c4    19653 
1162 003f 0007 0001 1098 1ff1 20 11010000 CMPD  ,U                 10 a3 c4 25 09    19658 
1165 003f 0007 0001 1098 1ff1 20 11010000 BCS   $1170              25 09 22 18 dc    19665 
1167 003f 0007 0001 1098 1ff1 20 11010000 BHI   $1181              22 18 dc 02 10    19668 
1181 003f 0007 0001 1098 1ff1 20 11010000 LEAX  -$1,X              30 1f 26 d3 35    19671 
1183 003f 0006 0001 1098 1ff1 20 11010000 BNE   $1158              26 d3 35 96 fc    19676 
1158 003f 0006 0001 1098 1ff1 20 11010000 LSR   <$00               04 00 06 01 06    19679 
115a 003f 0006 0001 1098 1ff1 20 11010100 ROR   <$01               06 01 06 02 06    19685 
115c 003f 0006 0001 1098 1ff1 20 11010001 ROR   <$02               06 02 06 03 dc    19691 
115e 003f 0006 0001 1098 1ff1 20 11011000 ROR   <$03               06 03 dc 00 10    19697 
1160 003f 0006 0001 1098 1ff1 20 11010000 LDD   <$00               dc 00 10 a3 c4    19703 
1162 001f 0006 0001 1098 1ff1 20 11010000 CMPD  ,U                 10 a3 c4 25 09    19708 
1165 001f 0006 0001 1098 1ff1 20 11010000 BCS   $1170              25 09 22 18 dc    19715 
1167 001f 0006 0001 1098 1ff1 20 11010000 BHI   $1181              22 18 dc 02 10    19718 
1181 001f 0006 0001 1098 1ff1 20 11010000 LEAX  -$1,X              30 1f 26 d3 35    19721 
1183 001f 0005 0001 1098 1ff1 20 11010000 BNE   $1158              26 d3 35 96 fc    19726 
1158 001f 0005 0001 1098 1ff1 20 11010000 LSR   <$00               04 00 06 01 06    19729 
115a 001f 0005 0001 1098 1ff1 20 11010100 ROR   <$01               06 01 06 02 06    19735 
115c 001f 0005 0001 1098 1ff1 20 11010001 ROR   <$02               06 02 06 03 dc    19741 
115e 001f 0005 0001 1098 1ff1 20 11011000 ROR   <$03               06 03 dc 00 10    19747 
1160 001f 0005 0001 1098 1ff1 20 11010000 LDD   <$00               dc 00 10 a3 c4    19753 
1162 000f 0005 0001 1098 1ff1 20 11010000 CMPD  ,U                 10 a3 c4 25 09    19758 
1165 000f 0005 0001 1098 1ff1 20 11010000 BCS   $1170              25 09 22 18 dc    19765 
1167 000f 0005 0001 1098 1ff1 20 11010000 BHI   $1181              22 18 dc 02 10    19768 
1181 000f 0005 0001 1098 1ff1 20 11010000 LEAX  -$1,X              30 1f 26 d3 35    19771 
1183 000f 0004 0001 1098 1ff1 20 11010000 BNE   $1158              26 d3 35 96 fc    19776 
1158 000f 0004 0001 1098 1ff1 20 11010000 LSR   <$00               04 00 06 01 06    19779 
115a 000f 0004 0001 1098 1ff1 20 11010100 ROR   <$01               06 01 06 02 06    19785 
115c 000f 0004 0001 1098 1ff1 20 11010001 ROR   <$02               06 02 06 03 dc    19791 
115e 000f 0004 0001 1098 1ff1 20 11011001 ROR   <$03               06 03 dc 00 10    19797 
1160 000f 0004 0001 1098 1ff1 20 11011000 LDD   <$00               dc 00 10 a3 c4    19803 
1162 0007 0004 0001 1098 1ff1 20 11010000 CMPD  ,U                 10 a3 c4 25 09    19808 
1165 0007 0004 0001 1098 1ff1 20 11010000 BCS   $1170              25 09 22 18 dc    19815 
1167 0007 0004 0001 1098 1ff1 20 11010000 BHI   $1181              22 18 dc 02 10    19818 
1181 0007 0004 0001 1098 1ff1 20 11010000 LEAX  -$1,X              30 1f 26 d3 35    19821 
1183 0007 0003 0001 1098 1ff1 20 11010000 BNE   $1158              26 d3 35 96 fc    19826 
1158 0007 0003 0001 1098 1ff1 20 11010000 LSR   <$00               04 00 06 01 06    19829 
115a 0007 0003 0001 1098 1ff1 20 11010100 ROR   <$01               06 01 06 02 06    19835 
115c 0007 0003 0001 1098 1ff1 20 11010001 ROR   <$02               06 02 06 03 dc    19841 
115e 0007 0003 0001 1098 1ff1 20 11011001 ROR   <$03               06 03 dc 00 10    19847 
1160 0007 0003 0001 1098 1ff1 20 11011000 LDD   <$00               dc 00 10 a3 c4    19853 
1162 0003 0003 0001 1098 1ff1 20 11010000 CMPD  ,U                 10 a3 c4 25 09    19858 
1165 0003 0003 0001 1098 1ff1 20 11011001 BCS   $1170              25 09 22 18 dc    19865 
1170 0003 0003 0001 1098 1ff1 20 11011001 LDD   $2,U               ec 42 93 02 ed    19868 
1172 c74b 0003 0001 1098 1ff1 20 11011001 SUBD  <$02               93 02 ed 42 ec    19874 
1174 c787 0003 0001 1098 1ff1 20 11011001 STD   $2,U               ed 42 ec c4 24    19880 
1176 c787 0003 0001 1098 1ff1 20 11011001 LDD   ,U                 ec c4 24 03 83    19886 
1178 0004 0003 0001 1098 1ff1 20 11010001 BCC   $117D              24 03 83 00 01    19891 
117a 0004 0003 0001 1098 1ff1 20 11010001 SUBD  #$0001             83 00 01 93 00    19894 
117d 0003 0003 0001 1098 1ff1 20 11010000 SUBD  <$00               93 00 ed c4 30    19898 
117f 0000 0003 0001 1098 1ff1 20 11010100 STD   ,U                 ed c4 30 1f 26    19904 
1181 0000 0003 0001 1098 1ff1 20 11010100 LEAX  -$1,X              30 1f 26 d3 35    19909 
1183 0000 0002 0001 1098 1ff1 20 11010000 BNE   $1158              26 d3 35 96 fc    19914 
1158 0000 0002 0001 1098 1ff1 20 11010000 LSR   <$00               04 00 06 01 06    19917 
115a 0000 0002 0001 1098 1ff1 20 11010100 ROR   <$01               06 01 06 02 06    19923 
115c 0000 0002 0001 1098 1ff1 20 11010001 ROR   <$02               06 02 06 03 dc    19929 
115e 0000 0002 0001 1098 1ff1 20 11011001 ROR   <$03               06 03 dc 00 10    19935 
1160 0000 0002 0001 1098 1ff1 20 11011000 LDD   <$00               dc 00 10 a3 c4    19941 
1162 0001 0002 0001 1098 1ff1 20 11010000 CMPD  ,U                 10 a3 c4 25 09    19946 
1165 0001 0002 0001 1098 1ff1 20 11010000 BCS   $1170              25 09 22 18 dc    19953 
1167 0001 0002 0001 1098 1ff1 20 11010000 BHI   $1181              22 18 dc 02 10    19956 
1181 0001 0002 0001 1098 1ff1 20 11010000 LEAX  -$1,X              30 1f 26 d3 35    19959 
1183 0001 0001 0001 1098 1ff1 20 11010000 BNE   $1158              26 d3 35 96 fc    19964 
1158 0001 0001 0001 1098 1ff1 20 11010000 LSR   <$00               04 00 06 01 06    19967 
115a 0001 0001 0001 1098 1ff1 20 11010100 ROR   <$01               06 01 06 02 06    19973 
115c 0001 0001 0001 1098 1ff1 20 11010101 ROR   <$02               06 02 06 03 dc    19979 
115e 0001 0001 0001 1098 1ff1 20 11011001 ROR   <$03               06 03 dc 00 10    19985 
1160 0001 0001 0001 1098 1ff1 20 11011000 LDD   <$00               dc 00 10 a3 c4    19991 
1162 0000 0001 0001 1098 1ff1 20 11010100 CMPD  ,U                 10 a3 c4 25 09    19996 
1165 0000 0001 0001 1098 1ff1 20 11010100 BCS   $1170              25 09 22 18 dc    20003 
1167 0000 0001 0001 1098 1ff1 20 11010100 BHI   $1181              22 18 dc 02 10    20006 
1169 0000 0001 0001 1098 1ff1 20 11010100 LDD   <$02               dc 02 10 a3 42    20009 
116b fff1 0001 0001 1098 1ff1 20 11011000 CMPD  $2,U               10 a3 42 22 11    20014 
116e fff1 0001 0001 1098 1ff1 20 11010000 BHI   $1181              22 11 ec 42 93    20022 
1181 fff1 0001 0001 1098 1ff1 20 11010000 LEAX  -$1,X              30 1f 26 d3 35    20025 
1183 fff1 0000 0001 1098 1ff1 20 11010100 BNE   $1158              26 d3 35 96 fc    20030 
1185 fff1 0000 0001 1098 1ff1 20 11010100 PULS  A,B,X,PC           35 96 fc 10 a0    20033 
1125 0048 fff1 0001 1098 1ff7 20 11010100 LDU   #$109C             ce 10 9c 8d 02    20044 
1128 0048 fff1 0001 109c 1ff7 20 11010000 BSR   $112C              8d 02 35 d0 34    20047 
112c 0048 fff1 0001 109c 1ff5 20 11010000 PSHS  X,B,A              34 16 9f 02 8e    20054 
112e 0048 fff1 0001 109c 1ff1 20 11010000 STX   <$02               9f 02 8e 00 00    20063 
1130 0048 fff1 0001 109c 1ff1 20 11011000 LDX   #$0000             8e 00 00 9f 00    20068 
1133 0048 0000 0001 109c 1ff1 20 11010100 STX   <$00               9f 00 ec c4 10    20071 
1135 0048 0000 0001 109c 1ff1 20 11010100 LDD   ,U                 ec c4 10 93 00    20076 
1137 e71b 0000 0001 109c 1ff1 20 11011000 CMPD  <$00               10 93 00 22 0b    20081 
113a e71b 0000 0001 109c 1ff1 20 11011000 BHI   $1147              22 0b 25 15 ec    20088 
1147 e71b 0000 0001 109c 1ff1 20 11011000 ASL   <$03               08 03 09 02 09    20091 
1149 e71b 0000 0001 109c 1ff1 20 11011001 ROL   <$02               09 02 09 01 09    20097 
114b e71b 0000 0001 109c 1ff1 20 11011001 ROL   <$01               09 01 09 00 30    20103 
114d e71b 0000 0001 109c 1ff1 20 11010000 ROL   <$00               09 00 30 01 20    20109 
114f e71b 0000 0001 109c 1ff1 20 11010100 LEAX  $1,X               30 01 20 e2 8c    20115 
1151 e71b 0001 0001 109c 1ff1 20 11010000 BRA   $1135              20 e2 8c 00 00    20120 
1135 e71b 0001 0001 109c 1ff1 20 11010000 LDD   ,U                 ec c4 10 93 00    20123 
1137 e71b 0001 0001 109c 1ff1 20 11011000 CMPD  <$00               10 93 00 22 0b    20128 
113a e71b 0001 0001 109c 1ff1 20 11011000 BHI   $1147              22 0b 25 15 ec    20135 
1147 e71b 0001 0001 109c 1ff1 20 11011000 ASL   <$03               08 03 09 02 09    20138 
1149 e71b 0001 0001 109c 1ff1 20 11011001 ROL   <$02               09 02 09 01 09    20144 
114b e71b 0001 0001 109c 1ff1 20 11011001 ROL   <$01               09 01 09 00 30    20150 
114d e71b 0001 0001 109c 1ff1 20 11010000 ROL   <$00               09 00 30 01 20    20156 
114f e71b 0001 0001 109c 1ff1 20 11010100 LEAX  $1,X               30 01 20 e2 8c    20162 
1151 e71b 0002 0001 109c 1ff1 20 11010000 BRA   $1135              20 e2 8c 00 00    20167 
1135 e71b 0002 0001 109c 1ff1 20 11010000 LDD   ,U                 ec c4 10 93 00    20170 
1137 e71b 0002 0001 109c 1ff1 20 11011000 CMPD  <$00               10 93 00 22 0b    20175 
113a e71b 0002 0001 109c 1ff1 20 11011000 BHI   $1147              22 0b 25 15 ec    20182 
1147 e71b 0002 0001 109c 1ff1 20 11011000 ASL   <$03               08 03 09 02 09    20185 
1149 e71b 0002 0001 109c 1ff1 20 11011001 ROL   <$02               09 02 09 01 09    20191 
114b e71b 0002 0001 109c 1ff1 20 11011001 ROL   <$01               09 01 09 00 30    20197 
114d e71b 0002 0001 109c 1ff1 20 11010000 ROL   <$00               09 00 30 01 20    20203 
114f e71b 0002 0001 109c 1ff1 20 11010100 LEAX  $1,X               30 01 20 e2 8c    20209 
1151 e71b 0003 0001 109c 1ff1 20 11010000 BRA   $1135              20 e2 8c 00 00    20214 
1135 e71b 0003 0001 109c 1ff1 20 11010000 LDD   ,U                 ec c4 10 93 00    20217 
1137 e71b 0003 0001 109c 1ff1 20 11011000 CMPD  <$00               10 93 00 22 0b    20222 
113a e71b 0003 0001 109c 1ff1 20 11011000 BHI   $1147              22 0b 25 15 ec    20229 
1147 e71b 0003 0001 109c 1ff1 20 11011000 ASL   <$03               08 03 09 02 09    20232 
1149 e71b 0003 0001 109c 1ff1 20 11010011 ROL   <$02               09 02 09 01 09    20238 
114b e71b 0003 0001 109c 1ff1 20 11011001 ROL   <$01               09 01 09 00 30    20244 
114d e71b 0003 0001 109c 1ff1 20 11010000 ROL   <$00               09 00 30 01 20    20250 
114f e71b 0003 0001 109c 1ff1 20 11010100 LEAX  $1,X               30 01 20 e2 8c    20256 
1151 e71b 0004 0001 109c 1ff1 20 11010000 BRA   $1135              20 e2 8c 00 00    20261 
1135 e71b 0004 0001 109c 1ff1 20 11010000 LDD   ,U                 ec c4 10 93 00    20264 
1137 e71b 0004 0001 109c 1ff1 20 11011000 CMPD  <$00               10 93 00 22 0b    20269 
113a e71b 0004 0001 109c 1ff1 20 11011000 BHI   $1147              22 0b 25 15 ec    20276 
1147 e71b 0004 0001 109c 1ff1 20 11011000 ASL   <$03               08 03 09 02 09    20279 
1149 e71b 0004 0001 109c 1ff1 20 11010000 ROL   <$02               09 02 09 01 09    20285 
114b e71b 0004 0001 109c 1ff1 20 11011001 ROL   <$01               09 01 09 00 30    20291 
114d e71b 0004 0001 109c 1ff1 20 11010000 ROL   <$00               09 00 30 01 20    20297 
114f e71b 0004 0001 109c 1ff1 20 11010100 LEAX  $1,X               30 01 20 e2 8c    20303 
1151 e71b 0005 0001 109c 1ff1 20 11010000 BRA   $1135              20 e2 8c 00 00    20308 
1135 e71b 0005 0001 109c 1ff1 20 11010000 LDD   ,U                 ec c4 10 93 00    20311 
1137 e71b 0005 0001 109c 1ff1 20 11011000 CMPD  <$00               10 93 00 22 0b    20316 
113a e71b 0005 0001 109c 1ff1 20 11011000 BHI   $1147              22 0b 25 15 ec    20323 
1147 e71b 0005 0001 109c 1ff1 20 11011000 ASL   <$03               08 03 09 02 09    20326 
1149 e71b 0005 0001 109c 1ff1 20 11010000 ROL   <$02               09 02 09 01 09    20332 
114b e71b 0005 0001 109c 1ff1 20 11011001 ROL   <$01               09 01 09 00 30    20338 
114d e71b 0005 0001 109c 1ff1 20 11010000 ROL   <$00               09 00 30 01 20    20344 
114f e71b 0005 0001 109c 1ff1 20 11010100 LEAX  $1,X               30 01 20 e2 8c    20350 
1151 e71b 0006 0001 109c 1ff1 20 11010000 BRA   $1135              20 e2 8c 00 00    20355 
1135 e71b 0006 0001 109c 1ff1 20 11010000 LDD   ,U                 ec c4 10 93 00    20358 
1137 e71b 0006 0001 109c 1ff1 20 11011000 CMPD  <$00               10 93 00 22 0b    20363 
113a e71b 0006 0001 109c 1ff1 20 11011000 BHI   $1147              22 0b 25 15 ec    20370 
1147 e71b 0006 0001 109c 1ff1 20 11011000 ASL   <$03               08 03 09 02 09    20373 
1149 e71b 0006 0001 109c 1ff1 20 11011010 ROL   <$02               09 02 09 01 09    20379 
114b e71b 0006 0001 109c 1ff1 20 11011001 ROL   <$01               09 01 09 00 30    20385 
114d e71b 0006 0001 109c 1ff1 20 11010000 ROL   <$00               09 00 30 01 20    20391 
114f e71b 0006 0001 109c 1ff1 20 11010100 LEAX  $1,X               30 01 20 e2 8c    20397 
1151 e71b 0007 0001 109c 1ff1 20 11010000 BRA   $1135              20 e2 8c 00 00    20402 
1135 e71b 0007 0001 109c 1ff1 20 11010000 LDD   ,U                 ec c4 10 93 00    20405 
1137 e71b 0007 0001 109c 1ff1 20 11011000 CMPD  <$00               10 93 00 22 0b    20410 
113a e71b 0007 0001 109c 1ff1 20 11011000 BHI   $1147              22 0b 25 15 ec    20417 
1147 e71b 0007 0001 109c 1ff1 20 11011000 ASL   <$03               08 03 09 02 09    20420 
1149 e71b 0007 0001 109c 1ff1 20 11010111 ROL   <$02               09 02 09 01 09    20426 
114b e71b 0007 0001 109c 1ff1 20 11011001 ROL   <$01               09 01 09 00 30    20432 
114d e71b 0007 0001 109c 1ff1 20 11011010 ROL   <$00               09 00 30 01 20    20438 
114f e71b 0007 0001 109c 1ff1 20 11010100 LEAX  $1,X               30 01 20 e2 8c    20444 
1151 e71b 0008 0001 109c 1ff1 20 11010000 BRA   $1135              20 e2 8c 00 00    20449 
1135 e71b 0008 0001 109c 1ff1 20 11010000 LDD   ,U                 ec c4 10 93 00    20452 
1137 e71b 0008 0001 109c 1ff1 20 11011000 CMPD  <$00               10 93 00 22 0b    20457 
113a e71b 0008 0001 109c 1ff1 20 11011000 BHI   $1147              22 0b 25 15 ec    20464 
1147 e71b 0008 0001 109c 1ff1 20 11011000 ASL   <$03               08 03 09 02 09    20467 
1149 e71b 0008 0001 109c 1ff1 20 11010100 ROL   <$02               09 02 09 01 09    20473 
114b e71b 0008 0001 109c 1ff1 20 11011001 ROL   <$01               09 01 09 00 30    20479 
114d e71b 0008 0001 109c 1ff1 20 11011001 ROL   <$00               09 00 30 01 20    20485 
114f e71b 0008 0001 109c 1ff1 20 11010000 LEAX  $1,X               30 01 20 e2 8c    20491 
1151 e71b 0009 0001 109c 1ff1 20 11010000 BRA   $1135              20 e2 8c 00 00    20496 
1135 e71b 0009 0001 109c 1ff1 20 11010000 LDD   ,U                 ec c4 10 93 00    20499 
1137 e71b 0009 0001 109c 1ff1 20 11011000 CMPD  <$00               10 93 00 22 0b    20504 
113a e71b 0009 0001 109c 1ff1 20 11011000 BHI   $1147              22 0b 25 15 ec    20511 
1147 e71b 0009 0001 109c 1ff1 20 11011000 ASL   <$03               08 03 09 02 09    20514 
1149 e71b 0009 0001 109c 1ff1 20 11010100 ROL   <$02               09 02 09 01 09    20520 
114b e71b 0009 0001 109c 1ff1 20 11011001 ROL   <$01               09 01 09 00 30    20526 
114d e71b 0009 0001 109c 1ff1 20 11011001 ROL   <$00               09 00 30 01 20    20532 
114f e71b 0009 0001 109c 1ff1 20 11010000 LEAX  $1,X               30 01 20 e2 8c    20538 
1151 e71b 000a 0001 109c 1ff1 20 11010000 BRA   $1135              20 e2 8c 00 00    20543 
1135 e71b 000a 0001 109c 1ff1 20 11010000 LDD   ,U                 ec c4 10 93 00    20546 
1137 e71b 000a 0001 109c 1ff1 20 11011000 CMPD  <$00               10 93 00 22 0b    20551 
113a e71b 000a 0001 109c 1ff1 20 11011000 BHI   $1147              22 0b 25 15 ec    20558 
1147 e71b 000a 0001 109c 1ff1 20 11011000 ASL   <$03               08 03 09 02 09    20561 
1149 e71b 000a 0001 109c 1ff1 20 11010100 ROL   <$02               09 02 09 01 09    20567 
114b e71b 000a 0001 109c 1ff1 20 11011001 ROL   <$01               09 01 09 00 30    20573 
114d e71b 000a 0001 109c 1ff1 20 11011001 ROL   <$00               09 00 30 01 20    20579 
114f e71b 000a 0001 109c 1ff1 20 11010000 LEAX  $1,X               30 01 20 e2 8c    20585 
1151 e71b 000b 0001 109c 1ff1 20 11010000 BRA   $1135              20 e2 8c 00 00    20590 
1135 e71b 000b 0001 109c 1ff1 20 11010000 LDD   ,U                 ec c4 10 93 00    20593 
1137 e71b 000b 0001 109c 1ff1 20 11011000 CMPD  <$00               10 93 00 22 0b    20598 
113a e71b 000b 0001 109c 1ff1 20 11011000 BHI   $1147              22 0b 25 15 ec    20605 
1147 e71b 000b 0001 109c 1ff1 20 11011000 ASL   <$03               08 03 09 02 09    20608 
1149 e71b 000b 0001 109c 1ff1 20 11010100 ROL   <$02               09 02 09 01 09    20614 
114b e71b 000b 0001 109c 1ff1 20 11010011 ROL   <$01               09 01 09 00 30    20620 
114d e71b 000b 0001 109c 1ff1 20 11011001 ROL   <$00               09 00 30 01 20    20626 
114f e71b 000b 0001 109c 1ff1 20 11010000 LEAX  $1,X               30 01 20 e2 8c    20632 
1151 e71b 000c 0001 109c 1ff1 20 11010000 BRA   $1135              20 e2 8c 00 00    20637 
1135 e71b 000c 0001 109c 1ff1 20 11010000 LDD   ,U                 ec c4 10 93 00    20640 
1137 e71b 000c 0001 109c 1ff1 20 11011000 CMPD  <$00               10 93 00 22 0b    20645 
113a e71b 000c 0001 109c 1ff1 20 11011000 BHI   $1147              22 0b 25 15 ec    20652 
1147 e71b 000c 0001 109c 1ff1 20 11011000 ASL   <$03               08 03 09 02 09    20655 
1149 e71b 000c 0001 109c 1ff1 20 11010100 ROL   <$02               09 02 09 01 09    20661 
114b e71b 000c 0001 109c 1ff1 20 11010000 ROL   <$01               09 01 09 00 30    20667 
114d e71b 000c 0001 109c 1ff1 20 11011001 ROL   <$00               09 00 30 01 20    20673 
114f e71b 000c 0001 109c 1ff1 20 11010000 LEAX  $1,X               30 01 20 e2 8c    20679 
1151 e71b 000d 0001 109c 1ff1 20 11010000 BRA   $1135              20 e2 8c 00 00    20684 
1135 e71b 000d 0001 109c 1ff1 20 11010000 LDD   ,U                 ec c4 10 93 00    20687 
1137 e71b 000d 0001 109c 1ff1 20 11011000 CMPD  <$00               10 93 00 22 0b    20692 
113a e71b 000d 0001 109c 1ff1 20 11011000 BHI   $1147              22 0b 25 15 ec    20699 
1147 e71b 000d 0001 109c 1ff1 20 11011000 ASL   <$03               08 03 09 02 09    20702 
1149 e71b 000d 0001 109c 1ff1 20 11010100 ROL   <$02               09 02 09 01 09    20708 
114b e71b 000d 0001 109c 1ff1 20 11010000 ROL   <$01               09 01 09 00 30    20714 
114d e71b 000d 0001 109c 1ff1 20 11011001 ROL   <$00               09 00 30 01 20    20720 
114f e71b 000d 0001 109c 1ff1 20 11010000 LEAX  $1,X               30 01 20 e2 8c    20726 
1151 e71b 000e 0001 109c 1ff1 20 11010000 BRA   $1135              20 e2 8c 00 00    20731 
1135 e71b 000e 0001 109c 1ff1 20 11010000 LDD   ,U                 ec c4 10 93 00    20734 
1137 e71b 000e 0001 109c 1ff1 20 11011000 CMPD  <$00               10 93 00 22 0b    20739 
113a e71b 000e 0001 109c 1ff1 20 11011000 BHI   $1147              22 0b 25 15 ec    20746 
1147 e71b 000e 0001 109c 1ff1 20 11011000 ASL   <$03               08 03 09 02 09    20749 
1149 e71b 000e 0001 109c 1ff1 20 11010100 ROL   <$02               09 02 09 01 09    20755 
114b e71b 000e 0001 109c 1ff1 20 11011010 ROL   <$01               09 01 09 00 30    20761 
114d e71b 000e 0001 109c 1ff1 20 11011001 ROL   <$00               09 00 30 01 20    20767 
114f e71b 000e 0001 109c 1ff1 20 11010000 LEAX  $1,X               30 01 20 e2 8c    20773 
1151 e71b 000f 0001 109c 1ff1 20 11010000 BRA   $1135              20 e2 8c 00 00    20778 
1135 e71b 000f 0001 109c 1ff1 20 11010000 LDD   ,U                 ec c4 10 93 00    20781 
1137 e71b 000f 0001 109c 1ff1 20 11011000 CMPD  <$00               10 93 00 22 0b    20786 
113a e71b 000f 0001 109c 1ff1 20 11010010 BHI   $1147              22 0b 25 15 ec    20793 
1147 e71b 000f 0001 109c 1ff1 20 11010010 ASL   <$03               08 03 09 02 09    20796 
1149 e71b 000f 0001 109c 1ff1 20 11010100 ROL   <$02               09 02 09 01 09    20802 
114b e71b 000f 0001 109c 1ff1 20 11010111 ROL   <$01               09 01 09 00 30    20808 
114d e71b 000f 0001 109c 1ff1 20 11011001 ROL   <$00               09 00 30 01 20    20814 
114f e71b 000f 0001 109c 1ff1 20 11011010 LEAX  $1,X               30 01 20 e2 8c    20820 
1151 e71b 0010 0001 109c 1ff1 20 11011010 BRA   $1135              20 e2 8c 00 00    20825 
1135 e71b 0010 0001 109c 1ff1 20 11011010 LDD   ,U                 ec c4 10 93 00    20828 
1137 e71b 0010 0001 109c 1ff1 20 11011000 CMPD  <$00               10 93 00 22 0b    20833 
113a e71b 0010 0001 109c 1ff1 20 11011001 BHI   $1147              22 0b 25 15 ec    20840 
113c e71b 0010 0001 109c 1ff1 20 11011001 BCS   $1153              25 15 ec 42 10    20843 
1153 e71b 0010 0001 109c 1ff1 20 11011001 CMPX  #$0000             8c 00 00 27 2d    20846 
1156 e71b 0010 0001 109c 1ff1 20 11010000 BEQ   $1185              27 2d 04 00 06    20850 
1158 e71b 0010 0001 109c 1ff1 20 11010000 LSR   <$00               04 00 06 01 06    20853 
115a e71b 0010 0001 109c 1ff1 20 11010001 ROR   <$01               06 01 06 02 06    20859 
115c e71b 0010 0001 109c 1ff1 20 11011001 ROR   <$02               06 02 06 03 dc    20865 
115e e71b 0010 0001 109c 1ff1 20 11011000 ROR   <$03               06 03 dc 00 10    20871 
1160 e71b 0010 0001 109c 1ff1 20 11010100 LDD   <$00               dc 00 10 a3 c4    20877 
1162 7ff8 0010 0001 109c 1ff1 20 11010000 CMPD  ,U                 10 a3 c4 25 09    20882 
1165 7ff8 0010 0001 109c 1ff1 20 11011011 BCS   $1170              25 09 22 18 dc    20889 
1170 7ff8 0010 0001 109c 1ff1 20 11011011 LDD   $2,U               ec 42 93 02 ed    20892 
1172 802c 0010 0001 109c 1ff1 20 11011001 SUBD  <$02               93 02 ed 42 ec    20898 
1174 002c 0010 0001 109c 1ff1 20 11010000 STD   $2,U               ed 42 ec c4 24    20904 
1176 002c 0010 0001 109c 1ff1 20 11010000 LDD   ,U                 ec c4 24 03 83    20910 
1178 e71b 0010 0001 109c 1ff1 20 11011000 BCC   $117D              24 03 83 00 01    20915 
117d e71b 0010 0001 109c 1ff1 20 11011000 SUBD  <$00               93 00 ed c4 30    20918 
117f 6723 0010 0001 109c 1ff1 20 11010010 STD   ,U                 ed c4 30 1f 26    20924 
1181 6723 0010 0001 109c 1ff1 20 11010000 LEAX  -$1,X              30 1f 26 d3 35    20929 
1183 6723 000f 0001 109c 1ff1 20 11010000 BNE   $1158              26 d3 35 96 fc    20934 
1158 6723 000f 0001 109c 1ff1 20 11010000 LSR   <$00               04 00 06 01 06    20937 
115a 6723 000f 0001 109c 1ff1 20 11010001 ROR   <$01               06 01 06 02 06    20943 
115c 6723 000f 0001 109c 1ff1 20 11011000 ROR   <$02               06 02 06 03 dc    20949 
115e 6723 000f 0001 109c 1ff1 20 11010000 ROR   <$03               06 03 dc 00 10    20955 
1160 6723 000f 0001 109c 1ff1 20 11010100 LDD   <$00               dc 00 10 a3 c4    20961 
1162 3ffc 000f 0001 109c 1ff1 20 11010000 CMPD  ,U                 10 a3 c4 25 09    20966 
1165 3ffc 000f 0001 109c 1ff1 20 11011001 BCS   $1170              25 09 22 18 dc    20973 
1170 3ffc 000f 0001 109c 1ff1 20 11011001 LDD   $2,U               ec 42 93 02 ed    20976 
1172 002c 000f 0001 109c 1ff1 20 11010001 SUBD  <$02               93 02 ed 42 ec    20982 
1174 c02c 000f 0001 109c 1ff1 20 11011001 STD   $2,U               ed 42 ec c4 24    20988 
1176 c02c 000f 0001 109c 1ff1 20 11011001 LDD   ,U                 ec c4 24 03 83    20994 
1178 6723 000f 0001 109c 1ff1 20 11010001 BCC   $117D              24 03 83 00 01    20999 
117a 6723 000f 0001 109c 1ff1 20 11010001 SUBD  #$0001             83 00 01 93 00    21002 
117d 6722 000f 0001 109c 1ff1 20 11010000 SUBD  <$00               93 00 ed c4 30    21006 
117f 2726 000f 0001 109c 1ff1 20 11010000 STD   ,U                 ed c4 30 1f 26    21012 
1181 2726 000f 0001 109c 1ff1 20 11010000 LEAX  -$1,X              30 1f 26 d3 35    21017 
1183 2726 000e 0001 109c 1ff1 20 11010000 BNE   $1158              26 d3 35 96 fc    21022 
1158 2726 000e 0001 109c 1ff1 20 11010000 LSR   <$00               04 00 06 01 06    21025 
115a 2726 000e 0001 109c 1ff1 20 11010001 ROR   <$01               06 01 06 02 06    21031 
115c 2726 000e 0001 109c 1ff1 20 11011000 ROR   <$02               06 02 06 03 dc    21037 
115e 2726 000e 0001 109c 1ff1 20 11010000 ROR   <$03               06 03 dc 00 10    21043 
1160 2726 000e 0001 109c 1ff1 20 11010100 LDD   <$00               dc 00 10 a3 c4    21049 
1162 1ffe 000e 0001 109c 1ff1 20 11010000 CMPD  ,U                 10 a3 c4 25 09    21054 
1165 1ffe 000e 0001 109c 1ff1 20 11011001 BCS   $1170              25 09 22 18 dc    21061 
1170 1ffe 000e 0001 109c 1ff1 20 11011001 LDD   $2,U               ec 42 93 02 ed    21064 
1172 c02c 000e 0001 109c 1ff1 20 11011001 SUBD  <$02               93 02 ed 42 ec    21070 
1174 a02c 000e 0001 109c 1ff1 20 11011000 STD   $2,U               ed 42 ec c4 24    21076 
1176 a02c 000e 0001 109c 1ff1 20 11011000 LDD   ,U                 ec c4 24 03 83    21082 
1178 2726 000e 0001 109c 1ff1 20 11010000 BCC   $117D              24 03 83 00 01    21087 
117d 2726 000e 0001 109c 1ff1 20 11010000 SUBD  <$00               93 00 ed c4 30    21090 
117f 0728 000e 0001 109c 1ff1 20 11010000 STD   ,U                 ed c4 30 1f 26    21096 
1181 0728 000e 0001 109c 1ff1 20 11010000 LEAX  -$1,X              30 1f 26 d3 35    21101 
1183 0728 000d 0001 109c 1ff1 20 11010000 BNE   $1158              26 d3 35 96 fc    21106 
1158 0728 000d 0001 109c 1ff1 20 11010000 LSR   <$00               04 00 06 01 06    21109 
115a 0728 000d 0001 109c 1ff1 20 11010001 ROR   <$01               06 01 06 02 06    21115 
115c 0728 000d 0001 109c 1ff1 20 11011000 ROR   <$02               06 02 06 03 dc    21121 
115e 0728 000d 0001 109c 1ff1 20 11010000 ROR   <$03               06 03 dc 00 10    21127 
1160 0728 000d 0001 109c 1ff1 20 11010100 LDD   <$00               dc 00 10 a3 c4    21133 
1162 0fff 000d 0001 109c 1ff1 20 11010000 CMPD  ,U                 10 a3 c4 25 09    21138 
1165 0fff 000d 0001 109c 1ff1 20 11010000 BCS   $1170              25 09 22 18 dc    21145 
1167 0fff 000d 0001 109c 1ff1 20 11010000 BHI   $1181              22 18 dc 02 10    21148 
1181 0fff 000d 0001 109c 1ff1 20 11010000 LEAX  -$1,X              30 1f 26 d3 35    21151 
1183 0fff 000c 0001 109c 1ff1 20 11010000 BNE   $1158              26 d3 35 96 fc    21156 
1158 0fff 000c 0001 109c 1ff1 20 11010000 LSR   <$00               04 00 06 01 06    21159 
115a 0fff 000c 0001 109c 1ff1 20 11010001 ROR   <$01               06 01 06 02 06    21165 
115c 0fff 000c 0001 109c 1ff1 20 11011001 ROR   <$02               06 02 06 03 dc    21171 
115e 0fff 000c 0001 109c 1ff1 20 11011000 ROR   <$03               06 03 dc 00 10    21177 
1160 0fff 000c 0001 109c 1ff1 20 11010100 LDD   <$00               dc 00 10 a3 c4    21183 
1162 07ff 000c 0001 109c 1ff1 20 11010000 CMPD  ,U                 10 a3 c4 25 09    21188 
1165 07ff 000c 0001 109c 1ff1 20 11010000 BCS   $1170              25 09 22 18 dc    21195 
1167 07ff 000c 0001 109c 1ff1 20 11010000 BHI   $1181              22 18 dc 02 10    21198 
1181 07ff 000c 0001 109c 1ff1 20 11010000 LEAX  -$1,X              30 1f 26 d3 35    21201 
1183 07ff 000b 0001 109c 1ff1 20 11010000 BNE   $1158              26 d3 35 96 fc    21206 
1158 07ff 000b 0001 109c 1ff1 20 11010000 LSR   <$00               04 00 06 01 06    21209 
115a 07ff 000b 0001 109c 1ff1 20 11010001 ROR   <$01               06 01 06 02 06    21215 
115c 07ff 000b 0001 109c 1ff1 20 11011001 ROR   <$02               06 02 06 03 dc    21221 
115e 07ff 000b 0001 109c 1ff1 20 11011000 ROR   <$03               06 03 dc 00 10    21227 
1160 07ff 000b 0001 109c 1ff1 20 11010100 LDD   <$00               dc 00 10 a3 c4    21233 
1162 03ff 000b 0001 109c 1ff1 20 11010000 CMPD  ,U                 10 a3 c4 25 09    21238 
1165 03ff 000b 0001 109c 1ff1 20 11011001 BCS   $1170              25 09 22 18 dc    21245 
1170 03ff 000b 0001 109c 1ff1 20 11011001 LDD   $2,U               ec 42 93 02 ed    21248 
1172 a02c 000b 0001 109c 1ff1 20 11011001 SUBD  <$02               93 02 ed 42 ec    21254 
1174 dc2c 000b 0001 109c 1ff1 20 11011001 STD   $2,U               ed 42 ec c4 24    21260 
1176 dc2c 000b 0001 109c 1ff1 20 11011001 LDD   ,U                 ec c4 24 03 83    21266 
1178 0728 000b 0001 109c 1ff1 20 11010001 BCC   $117D              24 03 83 00 01    21271 
117a 0728 000b 0001 109c 1ff1 20 11010001 SUBD  #$0001             83 00 01 93 00    21274 
117d 0727 000b 0001 109c 1ff1 20 11010000 SUBD  <$00               93 00 ed c4 30    21278 
117f 0328 000b 0001 109c 1ff1 20 11010000 STD   ,U                 ed c4 30 1f 26    21284 
1181 0328 000b 0001 109c 1ff1 20 11010000 LEAX  -$1,X              30 1f 26 d3 35    21289 
1183 0328 000a 0001 109c 1ff1 20 11010000 BNE   $1158              26 d3 35 96 fc    21294 
1158 0328 000a 0001 109c 1ff1 20 11010000 LSR   <$00               04 00 06 01 06    21297 
115a 0328 000a 0001 109c 1ff1 20 11010001 ROR   <$01               06 01 06 02 06    21303 
115c 0328 000a 0001 109c 1ff1 20 11011001 ROR   <$02               06 02 06 03 dc    21309 
115e 0328 000a 0001 109c 1ff1 20 11011000 ROR   <$03               06 03 dc 00 10    21315 
1160 0328 000a 0001 109c 1ff1 20 11010100 LDD   <$00               dc 00 10 a3 c4    21321 
1162 01ff 000a 0001 109c 1ff1 20 11010000 CMPD  ,U                 10 a3 c4 25 09    21326 
1165 01ff 000a 0001 109c 1ff1 20 11011001 BCS   $1170              25 09 22 18 dc    21333 
1170 01ff 000a 0001 109c 1ff1 20 11011001 LDD   $2,U               ec 42 93 02 ed    21336 
1172 dc2c 000a 0001 109c 1ff1 20 11011001 SUBD  <$02               93 02 ed 42 ec    21342 
1174 fa2c 000a 0001 109c 1ff1 20 11011001 STD   $2,U               ed 42 ec c4 24    21348 
1176 fa2c 000a 0001 109c 1ff1 20 11011001 LDD   ,U                 ec c4 24 03 83    21354 
1178 0328 000a 0001 109c 1ff1 20 11010001 BCC   $117D              24 03 83 00 01    21359 
117a 0328 000a 0001 109c 1ff1 20 11010001 SUBD  #$0001             83 00 01 93 00    21362 
117d 0327 000a 0001 109c 1ff1 20 11010000 SUBD  <$00               93 00 ed c4 30    21366 
117f 0128 000a 0001 109c 1ff1 20 11010000 STD   ,U                 ed c4 30 1f 26    21372 
1181 0128 000a 0001 109c 1ff1 20 11010000 LEAX  -$1,X              30 1f 26 d3 35    21377 
1183 0128 0009 0001 109c 1ff1 20 11010000 BNE   $1158              26 d3 35 96 fc    21382 
1158 0128 0009 0001 109c 1ff1 20 11010000 LSR   <$00               04 00 06 01 06    21385 
115a 0128 0009 0001 109c 1ff1 20 11010101 ROR   <$01               06 01 06 02 06    21391 
115c 0128 0009 0001 109c 1ff1 20 11011001 ROR   <$02               06 02 06 03 dc    21397 
115e 0128 0009 0001 109c 1ff1 20 11011000 ROR   <$03               06 03 dc 00 10    21403 
1160 0128 0009 0001 109c 1ff1 20 11010100 LDD   <$00               dc 00 10 a3 c4    21409 
1162 00ff 0009 0001 109c 1ff1 20 11010000 CMPD  ,U                 10 a3 c4 25 09    21414 
1165 00ff 0009 0001 109c 1ff1 20 11011001 BCS   $1170              25 09 22 18 dc    21421 
1170 00ff 0009 0001 109c 1ff1 20 11011001 LDD   $2,U               ec 42 93 02 ed    21424 
1172 fa2c 0009 0001 109c 1ff1 20 11011001 SUBD  <$02               93 02 ed 42 ec    21430 
1174 092c 0009 0001 109c 1ff1 20 11010000 STD   $2,U               ed 42 ec c4 24    21436 
1176 092c 0009 0001 109c 1ff1 20 11010000 LDD   ,U                 ec c4 24 03 83    21442 
1178 0128 0009 0001 109c 1ff1 20 11010000 BCC   $117D              24 03 83 00 01    21447 
117d 0128 0009 0001 109c 1ff1 20 11010000 SUBD  <$00               93 00 ed c4 30    21450 
117f 0029 0009 0001 109c 1ff1 20 11010000 STD   ,U                 ed c4 30 1f 26    21456 
1181 0029 0009 0001 109c 1ff1 20 11010000 LEAX  -$1,X              30 1f 26 d3 35    21461 
1183 0029 0008 0001 109c 1ff1 20 11010000 BNE   $1158              26 d3 35 96 fc    21466 
1158 0029 0008 0001 109c 1ff1 20 11010000 LSR   <$00               04 00 06 01 06    21469 
115a 0029 0008 0001 109c 1ff1 20 11010100 ROR   <$01               06 01 06 02 06    21475 
115c 0029 0008 0001 109c 1ff1 20 11010001 ROR   <$02               06 02 06 03 dc    21481 
115e 0029 0008 0001 109c 1ff1 20 11011001 ROR   <$03               06 03 dc 00 10    21487 
1160 0029 0008 0001 109c 1ff1 20 11011000 LDD   <$00               dc 00 10 a3 c4    21493 
1162 007f 0008 0001 109c 1ff1 20 11010000 CMPD  ,U                 10 a3 c4 25 09    21498 
1165 007f 0008 0001 109c 1ff1 20 11010000 BCS   $1170              25 09 22 18 dc    21505 
1167 007f 0008 0001 109c 1ff1 20 11010000 BHI   $1181              22 18 dc 02 10    21508 
1181 007f 0008 0001 109c 1ff1 20 11010000 LEAX  -$1,X              30 1f 26 d3 35    21511 
1183 007f 0007 0001 109c 1ff1 20 11010000 BNE   $1158              26 d3 35 96 fc    21516 
1158 007f 0007 0001 109c 1ff1 20 11010000 LSR   <$00               04 00 06 01 06    21519 
115a 007f 0007 0001 109c 1ff1 20 11010100 ROR   <$01               06 01 06 02 06    21525 
115c 007f 0007 0001 109c 1ff1 20 11010001 ROR   <$02               06 02 06 03 dc    21531 
115e 007f 0007 0001 109c 1ff1 20 11011000 ROR   <$03               06 03 dc 00 10    21537 
1160 007f 0007 0001 109c 1ff1 20 11010000 LDD   <$00               dc 00 10 a3 c4    21543 
1162 003f 0007 0001 109c 1ff1 20 11010000 CMPD  ,U                 10 a3 c4 25 09    21548 
1165 003f 0007 0001 109c 1ff1 20 11010000 BCS   $1170              25 09 22 18 dc    21555 
1167 003f 0007 0001 109c 1ff1 20 11010000 BHI   $1181              22 18 dc 02 10    21558 
1181 003f 0007 0001 109c 1ff1 20 11010000 LEAX  -$1,X              30 1f 26 d3 35    21561 
1183 003f 0006 0001 109c 1ff1 20 11010000 BNE   $1158              26 d3 35 96 fc    21566 
1158 003f 0006 0001 109c 1ff1 20 11010000 LSR   <$00               04 00 06 01 06    21569 
115a 003f 0006 0001 109c 1ff1 20 11010100 ROR   <$01               06 01 06 02 06    21575 
115c 003f 0006 0001 109c 1ff1 20 11010001 ROR   <$02               06 02 06 03 dc    21581 
115e 003f 0006 0001 109c 1ff1 20 11011000 ROR   <$03               06 03 dc 00 10    21587 
1160 003f 0006 0001 109c 1ff1 20 11010000 LDD   <$00               dc 00 10 a3 c4    21593 
1162 001f 0006 0001 109c 1ff1 20 11010000 CMPD  ,U                 10 a3 c4 25 09    21598 
1165 001f 0006 0001 109c 1ff1 20 11011001 BCS   $1170              25 09 22 18 dc    21605 
1170 001f 0006 0001 109c 1ff1 20 11011001 LDD   $2,U               ec 42 93 02 ed    21608 
1172 092c 0006 0001 109c 1ff1 20 11010001 SUBD  <$02               93 02 ed 42 ec    21614 
1174 0b0c 0006 0001 109c 1ff1 20 11010001 STD   $2,U               ed 42 ec c4 24    21620 
1176 0b0c 0006 0001 109c 1ff1 20 11010001 LDD   ,U                 ec c4 24 03 83    21626 
1178 0029 0006 0001 109c 1ff1 20 11010001 BCC   $117D              24 03 83 00 01    21631 
117a 0029 0006 0001 109c 1ff1 20 11010001 SUBD  #$0001             83 00 01 93 00    21634 
117d 0028 0006 0001 109c 1ff1 20 11010000 SUBD  <$00               93 00 ed c4 30    21638 
117f 0009 0006 0001 109c 1ff1 20 11010000 STD   ,U                 ed c4 30 1f 26    21644 
1181 0009 0006 0001 109c 1ff1 20 11010000 LEAX  -$1,X              30 1f 26 d3 35    21649 
1183 0009 0005 0001 109c 1ff1 20 11010000 BNE   $1158              26 d3 35 96 fc    21654 
1158 0009 0005 0001 109c 1ff1 20 11010000 LSR   <$00               04 00 06 01 06    21657 
115a 0009 0005 0001 109c 1ff1 20 11010100 ROR   <$01               06 01 06 02 06    21663 
115c 0009 0005 0001 109c 1ff1 20 11010001 ROR   <$02               06 02 06 03 dc    21669 
115e 0009 0005 0001 109c 1ff1 20 11011000 ROR   <$03               06 03 dc 00 10    21675 
1160 0009 0005 0001 109c 1ff1 20 11010000 LDD   <$00               dc 00 10 a3 c4    21681 
1162 000f 0005 0001 109c 1ff1 20 11010000 CMPD  ,U                 10 a3 c4 25 09    21686 
1165 000f 0005 0001 109c 1ff1 20 11010000 BCS   $1170              25 09 22 18 dc    21693 
1167 000f 0005 0001 109c 1ff1 20 11010000 BHI   $1181              22 18 dc 02 10    21696 
1181 000f 0005 0001 109c 1ff1 20 11010000 LEAX  -$1,X              30 1f 26 d3 35    21699 
1183 000f 0004 0001 109c 1ff1 20 11010000 BNE   $1158              26 d3 35 96 fc    21704 
1158 000f 0004 0001 109c 1ff1 20 11010000 LSR   <$00               04 00 06 01 06    21707 
115a 000f 0004 0001 109c 1ff1 20 11010100 ROR   <$01               06 01 06 02 06    21713 
115c 000f 0004 0001 109c 1ff1 20 11010001 ROR   <$02               06 02 06 03 dc    21719 
115e 000f 0004 0001 109c 1ff1 20 11011001 ROR   <$03               06 03 dc 00 10    21725 
1160 000f 0004 0001 109c 1ff1 20 11011000 LDD   <$00               dc 00 10 a3 c4    21731 
1162 0007 0004 0001 109c 1ff1 20 11010000 CMPD  ,U                 10 a3 c4 25 09    21736 
1165 0007 0004 0001 109c 1ff1 20 11011001 BCS   $1170              25 09 22 18 dc    21743 
1170 0007 0004 0001 109c 1ff1 20 11011001 LDD   $2,U               ec 42 93 02 ed    21746 
1172 0b0c 0004 0001 109c 1ff1 20 11010001 SUBD  <$02               93 02 ed 42 ec    21752 
1174 0b84 0004 0001 109c 1ff1 20 11010001 STD   $2,U               ed 42 ec c4 24    21758 
1176 0b84 0004 0001 109c 1ff1 20 11010001 LDD   ,U                 ec c4 24 03 83    21764 
1178 0009 0004 0001 109c 1ff1 20 11010001 BCC   $117D              24 03 83 00 01    21769 
117a 0009 0004 0001 109c 1ff1 20 11010001 SUBD  #$0001             83 00 01 93 00    21772 
117d 0008 0004 0001 109c 1ff1 20 11010000 SUBD  <$00               93 00 ed c4 30    21776 
117f 0001 0004 0001 109c 1ff1 20 11010000 STD   ,U                 ed c4 30 1f 26    21782 
1181 0001 0004 0001 109c 1ff1 20 11010000 LEAX  -$1,X              30 1f 26 d3 35    21787 
1183 0001 0003 0001 109c 1ff1 20 11010000 BNE   $1158              26 d3 35 96 fc    21792 
1158 0001 0003 0001 109c 1ff1 20 11010000 LSR   <$00               04 00 06 01 06    21795 
115a 0001 0003 0001 109c 1ff1 20 11010100 ROR   <$01               06 01 06 02 06    21801 
115c 0001 0003 0001 109c 1ff1 20 11010001 ROR   <$02               06 02 06 03 dc    21807 
115e 0001 0003 0001 109c 1ff1 20 11011001 ROR   <$03               06 03 dc 00 10    21813 
1160 0001 0003 0001 109c 1ff1 20 11011000 LDD   <$00               dc 00 10 a3 c4    21819 
1162 0003 0003 0001 109c 1ff1 20 11010000 CMPD  ,U                 10 a3 c4 25 09    21824 
1165 0003 0003 0001 109c 1ff1 20 11010000 BCS   $1170              25 09 22 18 dc    21831 
1167 0003 0003 0001 109c 1ff1 20 11010000 BHI   $1181              22 18 dc 02 10    21834 
1181 0003 0003 0001 109c 1ff1 20 11010000 LEAX  -$1,X              30 1f 26 d3 35    21837 
1183 0003 0002 0001 109c 1ff1 20 11010000 BNE   $1158              26 d3 35 96 fc    21842 
1158 0003 0002 0001 109c 1ff1 20 11010000 LSR   <$00               04 00 06 01 06    21845 
115a 0003 0002 0001 109c 1ff1 20 11010100 ROR   <$01               06 01 06 02 06    21851 
115c 0003 0002 0001 109c 1ff1 20 11010001 ROR   <$02               06 02 06 03 dc    21857 
115e 0003 0002 0001 109c 1ff1 20 11011001 ROR   <$03               06 03 dc 00 10    21863 
1160 0003 0002 0001 109c 1ff1 20 11011000 LDD   <$00               dc 00 10 a3 c4    21869 
1162 0001 0002 0001 109c 1ff1 20 11010000 CMPD  ,U                 10 a3 c4 25 09    21874 
1165 0001 0002 0001 109c 1ff1 20 11010100 BCS   $1170              25 09 22 18 dc    21881 
1167 0001 0002 0001 109c 1ff1 20 11010100 BHI   $1181              22 18 dc 02 10    21884 
1169 0001 0002 0001 109c 1ff1 20 11010100 LDD   <$02               dc 02 10 a3 42    21887 
116b ffe2 0002 0001 109c 1ff1 20 11011000 CMPD  $2,U               10 a3 42 22 11    21892 
116e ffe2 0002 0001 109c 1ff1 20 11011000 BHI   $1181              22 11 ec 42 93    21900 
1181 ffe2 0002 0001 109c 1ff1 20 11011000 LEAX  -$1,X              30 1f 26 d3 35    21903 
1183 ffe2 0001 0001 109c 1ff1 20 11011000 BNE   $1158              26 d3 35 96 fc    21908 
1158 ffe2 0001 0001 109c 1ff1 20 11011000 LSR   <$00               04 00 06 01 06    21911 
115a ffe2 0001 0001 109c 1ff1 20 11010100 ROR   <$01               06 01 06 02 06    21917 
115c ffe2 0001 0001 109c 1ff1 20 11010101 ROR   <$02               06 02 06 03 dc    21923 
115e ffe2 0001 0001 109c 1ff1 20 11011001 ROR   <$03               06 03 dc 00 10    21929 
1160 ffe2 0001 0001 109c 1ff1 20 11011000 LDD   <$00               dc 00 10 a3 c4    21935 
1162 0000 0001 0001 109c 1ff1 20 11010100 CMPD  ,U                 10 a3 c4 25 09    21940 
1165 0000 0001 0001 109c 1ff1 20 11011001 BCS   $1170              25 09 22 18 dc    21947 
1170 0000 0001 0001 109c 1ff1 20 11011001 LDD   $2,U               ec 42 93 02 ed    21950 
1172 0b84 0001 0001 109c 1ff1 20 11010001 SUBD  <$02               93 02 ed 42 ec    21956 
1174 0b93 0001 0001 109c 1ff1 20 11010001 STD   $2,U               ed 42 ec c4 24    21962 
1176 0b93 0001 0001 109c 1ff1 20 11010001 LDD   ,U                 ec c4 24 03 83    21968 
1178 0001 0001 0001 109c 1ff1 20 11010001 BCC   $117D              24 03 83 00 01    21973 
117a 0001 0001 0001 109c 1ff1 20 11010001 SUBD  #$0001             83 00 01 93 00    21976 
117d 0000 0001 0001 109c 1ff1 20 11010100 SUBD  <$00               93 00 ed c4 30    21980 
117f 0000 0001 0001 109c 1ff1 20 11010100 STD   ,U                 ed c4 30 1f 26    21986 
1181 0000 0001 0001 109c 1ff1 20 11010100 LEAX  -$1,X              30 1f 26 d3 35    21991 
1183 0000 0000 0001 109c 1ff1 20 11010100 BNE   $1158              26 d3 35 96 fc    21996 
1185 0000 0000 0001 109c 1ff1 20 11010100 PULS  A,B,X,PC           35 96 fc 10 a0    21999 
112a 0048 fff1 0001 109c 1ff7 20 11010100 PULS  X,U,PC             35 d0 34 16 9f    22010 
118e 0048 1098 0001 1099 1ffd 20 11010100 LDD   $109E              fc 10 9e fd 10    22021 
1191 0b93 1098 0001 1099 1ffd 20 11010000 STD   $1098              fd 10 98 39 cd    22027 
1194 0b93 1098 0001 1099 1ffd 20 11010000 RTS                      39 cd cd cd cd    22033 
1035 0b93 1098 0001 1099 1fff 20 11010000 LDX   #$1086             8e 10 86 a7 84    22038 
1038 0b93 1086 0001 1099 1fff 20 11010000 STA   ,X                 a7 84 e8 01 24    22041 
103a 0b93 1086 0001 1099 1fff 20 11010000 EORB  $1,X               e8 01 24 01 19    22045 
103c 0ba4 1086 0001 1099 1fff 20 11011000 BCC   $103F              24 01 19 25 01    22050 
103f 0ba4 1086 0001 1099 1fff 20 11011000 BCS   $1042              25 01 4c 27 01    22053 
1041 0ba4 1086 0001 1099 1fff 20 11011000 INCA                     4c 27 01 4a 2c    22056 
1042 0ca4 1086 0001 1099 1fff 20 11010000 BEQ   $1045              27 01 4a 2c 03    22058 
1044 0ca4 1086 0001 1099 1fff 20 11010000 DECA                     4a 2c 03 bd 10    22061 
1045 0ba4 1086 0001 1099 1fff 20 11010000 BGE   $104A              2c 03 bd 10 af    22063 
104a 0ba4 1086 0001 1099 1fff 20 11010000 BGT   $104E              2e 02 ab 84 22    22066 
104e 0ba4 1086 0001 1099 1fff 20 11010000 BHI   $1052              22 02 a9 84 24    22069 
1052 0ba4 1086 0001 1099 1fff 20 11010000 BCC   $1055              24 01 3d 2f 02    22072 
1055 0ba4 1086 0001 1099 1fff 20 11010000 BLE   $1059              2f 02 a0 84 25    22075 
1057 0ba4 1086 0001 1099 1fff 20 11010000 SUBA  ,X                 a0 84 25 02 a2    22078 
1059 00a4 1086 0001 1099 1fff 20 11010100 BCS   $105D              25 02 a2 84 23    22082 
105b 00a4 1086 0001 1099 1fff 20 11010100 SBCA  ,X                 a2 84 23 01 48    22085 
105d f5a4 1086 0001 1099 1fff 20 11011001 BLS   $1060              23 01 48 2d 01    22089 
1060 f5a4 1086 0001 1099 1fff 20 11011001 BLT   $1063              2d 01 49 2b 01    22092 
1063 f5a4 1086 0001 1099 1fff 20 11011001 BMI   $1066              2b 01 44 26 01    22095 
1066 f5a4 1086 0001 1099 1fff 20 11011001 BNE   $1069              26 01 46 2a 02    22098 
1069 f5a4 1086 0001 1099 1fff 20 11011001 BPL   $106D              2a 02 84 0f 28    22101 
106b f5a4 1086 0001 1099 1fff 20 11011001 ANDA  #$0F               84 0f 28 02 8a    22104 
106d 05a4 1086 0001 1099 1fff 20 11010001 BVC   $1071              28 02 8a f0 29    22106 
1071 05a4 1086 0001 1099 1fff 20 11010001 BVS   $1075              29 02 88 aa a8    22109 
1073 05a4 1086 0001 1099 1fff 20 11010001 EORA  #$AA               88 aa a8 84 31    22112 
1075 afa4 1086 0001 1099 1fff 20 11011001 EORA  ,X                 a8 84 31 3f 26    22114 
1077 a4a4 1086 0001 1099 1fff 20 11011001 LEAY  -$1,Y              31 3f 26 9f bd    22118 
1079 a4a4 1086 0000 1099 1fff 20 11011101 BNE   $101A              26 9f bd 11 87    22123 
107b a4a4 1086 0000 1099 1fff 20 11011101 JSR   $1187              bd 11 87 4f 1f    22126 
1187 a4a4 1086 0000 1099 1ffd 20 11011101 LDD   $10A0              fc 10 a0 27 02    22134 
118a 0048 1086 0000 1099 1ffd 20 11010001 BEQ   $118E              27 02 8d 8d fc    22140 
118c 0048 1086 0000 1099 1ffd 20 11010001 BSR   $111B              8d 8d fc 10 9e    22143 
111b 0048 1086 0000 1099 1ffb 20 11010001 PSHS  U,X                34 50 ce 10 98    22150 
111d 0048 1086 0000 1099 1ff7 20 11010001 LDU   #$1098             ce 10 98 8e ff    22159 
1120 0048 1086 0000 1098 1ff7 20 11010001 LDX   #$FFF1             8e ff f1 8d 07    22162 
1123 0048 fff1 0000 1098 1ff7 20 11011001 BSR   $112C              8d 07 ce 10 9c    22165 
112c 0048 fff1 0000 1098 1ff5 20 11011001 PSHS  X,B,A              34 16 9f 02 8e    22172 
112e 0048 fff1 0000 1098 1ff1 20 11011001 STX   <$02               9f 02 8e 00 00    22181 
1130 0048 fff1 0000 1098 1ff1 20 11011001 LDX   #$0000             8e 00 00 9f 00    22186 
1133 0048 0000 0000 1098 1ff1 20 11010101 STX   <$00               9f 00 ec c4 10    22189 
1135 0048 0000 0000 1098 1ff1 20 11010101 LDD   ,U                 ec c4 10 93 00    22194 
1137 0b93 0000 0000 1098 1ff1 20 11010001 CMPD  <$00               10 93 00 22 0b    22199 
113a 0b93 0000 0000 1098 1ff1 20 11010000 BHI   $1147              22 0b 25 15 ec    22206 
1147 0b93 0000 0000 1098 1ff1 20 11010000 ASL   <$03               08 03 09 02 09    22209 
1149 0b93 0000 0000 1098 1ff1 20 11011001 ROL   <$02               09 02 09 01 09    22215 
114b 0b93 0000 0000 1098 1ff1 20 11011001 ROL   <$01               09 01 09 00 30    22221 
114d 0b93 0000 0000 1098 1ff1 20 11010000 ROL   <$00               09 00 30 01 20    22227 
114f 0b93 0000 0000 1098 1ff1 20 11010100 LEAX  $1,X               30 01 20 e2 8c    22233 
1151 0b93 0001 0000 1098 1ff1 20 11010000 BRA   $1135              20 e2 8c 00 00    22238 
1135 0b93 0001 0000 1098 1ff1 20 11010000 LDD   ,U                 ec c4 10 93 00    22241 
1137 0b93 0001 0000 1098 1ff1 20 11010000 CMPD  <$00               10 93 00 22 0b    22246 
113a 0b93 0001 0000 1098 1ff1 20 11010000 BHI   $1147              22 0b 25 15 ec    22253 
1147 0b93 0001 0000 1098 1ff1 20 11010000 ASL   <$03               08 03 09 02 09    22256 
1149 0b93 0001 0000 1098 1ff1 20 11011001 ROL   <$02               09 02 09 01 09    22262 
114b 0b93 0001 0000 1098 1ff1 20 11011001 ROL   <$01               09 01 09 00 30    22268 
114d 0b93 0001 0000 1098 1ff1 20 11010000 ROL   <$00               09 00 30 01 20    22274 
114f 0b93 0001 0000 1098 1ff1 20 11010100 LEAX  $1,X               30 01 20 e2 8c    22280 
1151 0b93 0002 0000 1098 1ff1 20 11010000 BRA   $1135              20 e2 8c 00 00    22285 
1135 0b93 0002 0000 1098 1ff1 20 11010000 LDD   ,U                 ec c4 10 93 00    22288 
1137 0b93 0002 0000 1098 1ff1 20 11010000 CMPD  <$00               10 93 00 22 0b    22293 
113a 0b93 0002 0000 1098 1ff1 20 11010000 BHI   $1147              22 0b 25 15 ec    22300 
1147 0b93 0002 0000 1098 1ff1 20 11010000 ASL   <$03               08 03 09 02 09    22303 
1149 0b93 0002 0000 1098 1ff1 20 11011001 ROL   <$02               09 02 09 01 09    22309 
114b 0b93 0002 0000 1098 1ff1 20 11011001 ROL   <$01               09 01 09 00 30    22315 
114d 0b93 0002 0000 1098 1ff1 20 11010000 ROL   <$00               09 00 30 01 20    22321 
114f 0b93 0002 0000 1098 1ff1 20 11010100 LEAX  $1,X               30 01 20 e2 8c    22327 
1151 0b93 0003 0000 1098 1ff1 20 11010000 BRA   $1135              20 e2 8c 00 00    22332 
1135 0b93 0003 0000 1098 1ff1 20 11010000 LDD   ,U                 ec c4 10 93 00    22335 
1137 0b93 0003 0000 1098 1ff1 20 11010000 CMPD  <$00               10 93 00 22 0b    22340 
113a 0b93 0003 0000 1098 1ff1 20 11010000 BHI   $1147              22 0b 25 15 ec    22347 
1147 0b93 0003 0000 1098 1ff1 20 11010000 ASL   <$03               08 03 09 02 09    22350 
1149 0b93 0003 0000 1098 1ff1 20 11010011 ROL   <$02               09 02 09 01 09    22356 
114b 0b93 0003 0000 1098 1ff1 20 11011001 ROL   <$01               09 01 09 00 30    22362 
114d 0b93 0003 0000 1098 1ff1 20 11010000 ROL   <$00               09 00 30 01 20    22368 
114f 0b93 0003 0000 1098 1ff1 20 11010100 LEAX  $1,X               30 01 20 e2 8c    22374 
1151 0b93 0004 0000 1098 1ff1 20 11010000 BRA   $1135              20 e2 8c 00 00    22379 
1135 0b93 0004 0000 1098 1ff1 20 11010000 LDD   ,U                 ec c4 10 93 00    22382 
1137 0b93 0004 0000 1098 1ff1 20 11010000 CMPD  <$00               10 93 00 22 0b    22387 
113a 0b93 0004 0000 1098 1ff1 20 11010000 BHI   $1147              22 0b 25 15 ec    22394 
1147 0b93 0004 0000 1098 1ff1 20 11010000 ASL   <$03               08 03 09 02 09    22397 
1149 0b93 0004 0000 1098 1ff1 20 11010000 ROL   <$02               09 02 09 01 09    22403 
114b 0b93 0004 0000 1098 1ff1 20 11011001 ROL   <$01               09 01 09 00 30    22409 
114d 0b93 0004 0000 1098 1ff1 20 11010000 ROL   <$00               09 00 30 01 20    22415 
114f 0b93 0004 0000 1098 1ff1 20 11010100 LEAX  $1,X               30 01 20 e2 8c    22421 
1151 0b93 0005 0000 1098 1ff1 20 11010000 BRA   $1135              20 e2 8c 00 00    22426 
1135 0b93 0005 0000 1098 1ff1 20 11010000 LDD   ,U                 ec c4 10 93 00    22429 
1137 0b93 0005 0000 1098 1ff1 20 11010000 CMPD  <$00               10 93 00 22 0b    22434 
113a 0b93 0005 0000 1098 1ff1 20 11010000 BHI   $1147              22 0b 25 15 ec    22441 
1147 0b93 0005 0000 1098 1ff1 20 11010000 ASL   <$03               08 03 09 02 09    22444 
1149 0b93 0005 0000 1098 1ff1 20 11010000 ROL   <$02               09 02 09 01 09    22450 
114b 0b93 0005 0000 1098 1ff1 20 11011001 ROL   <$01               09 01 09 00 30    22456 
114d 0b93 0005 0000 1098 1ff1 20 11010000 ROL   <$00               09 00 30 01 20    22462 
114f 0b93 0005 0000 1098 1ff1 20 11010100 LEAX  $1,X               30 01 20 e2 8c    22468 
1151 0b93 0006 0000 1098 1ff1 20 11010000 BRA   $1135              20 e2 8c 00 00    22473 
1135 0b93 0006 0000 1098 1ff1 20 11010000 LDD   ,U                 ec c4 10 93 00    22476 
1137 0b93 0006 0000 1098 1ff1 20 11010000 CMPD  <$00               10 93 00 22 0b    22481 
113a 0b93 0006 0000 1098 1ff1 20 11010000 BHI   $1147              22 0b 25 15 ec    22488 
1147 0b93 0006 0000 1098 1ff1 20 11010000 ASL   <$03               08 03 09 02 09    22491 
1149 0b93 0006 0000 1098 1ff1 20 11011010 ROL   <$02               09 02 09 01 09    22497 
114b 0b93 0006 0000 1098 1ff1 20 11011001 ROL   <$01               09 01 09 00 30    22503 
114d 0b93 0006 0000 1098 1ff1 20 11010000 ROL   <$00               09 00 30 01 20    22509 
114f 0b93 0006 0000 1098 1ff1 20 11010100 LEAX  $1,X               30 01 20 e2 8c    22515 
1151 0b93 0007 0000 1098 1ff1 20 11010000 BRA   $1135              20 e2 8c 00 00    22520 
1135 0b93 0007 0000 1098 1ff1 20 11010000 LDD   ,U                 ec c4 10 93 00    22523 
1137 0b93 0007 0000 1098 1ff1 20 11010000 CMPD  <$00               10 93 00 22 0b    22528 
113a 0b93 0007 0000 1098 1ff1 20 11010000 BHI   $1147              22 0b 25 15 ec    22535 
1147 0b93 0007 0000 1098 1ff1 20 11010000 ASL   <$03               08 03 09 02 09    22538 
1149 0b93 0007 0000 1098 1ff1 20 11010111 ROL   <$02               09 02 09 01 09    22544 
114b 0b93 0007 0000 1098 1ff1 20 11011001 ROL   <$01               09 01 09 00 30    22550 
114d 0b93 0007 0000 1098 1ff1 20 11011010 ROL   <$00               09 00 30 01 20    22556 
114f 0b93 0007 0000 1098 1ff1 20 11010100 LEAX  $1,X               30 01 20 e2 8c    22562 
1151 0b93 0008 0000 1098 1ff1 20 11010000 BRA   $1135              20 e2 8c 00 00    22567 
1135 0b93 0008 0000 1098 1ff1 20 11010000 LDD   ,U                 ec c4 10 93 00    22570 
1137 0b93 0008 0000 1098 1ff1 20 11010000 CMPD  <$00               10 93 00 22 0b    22575 
113a 0b93 0008 0000 1098 1ff1 20 11010000 BHI   $1147              22 0b 25 15 ec    22582 
1147 0b93 0008 0000 1098 1ff1 20 11010000 ASL   <$03               08 03 09 02 09    22585 
1149 0b93 0008 0000 1098 1ff1 20 11010100 ROL   <$02               09 02 09 01 09    22591 
114b 0b93 0008 0000 1098 1ff1 20 11011001 ROL   <$01               09 01 09 00 30    22597 
114d 0b93 0008 0000 1098 1ff1 20 11011001 ROL   <$00               09 00 30 01 20    22603 
114f 0b93 0008 0000 1098 1ff1 20 11010000 LEAX  $1,X               30 01 20 e2 8c    22609 
1151 0b93 0009 0000 1098 1ff1 20 11010000 BRA   $1135              20 e2 8c 00 00    22614 
1135 0b93 0009 0000 1098 1ff1 20 11010000 LDD   ,U                 ec c4 10 93 00    22617 
1137 0b93 0009 0000 1098 1ff1 20 11010000 CMPD  <$00               10 93 00 22 0b    22622 
113a 0b93 0009 0000 1098 1ff1 20 11010000 BHI   $1147              22 0b 25 15 ec    22629 
1147 0b93 0009 0000 1098 1ff1 20 11010000 ASL   <$03               08 03 09 02 09    22632 
1149 0b93 0009 0000 1098 1ff1 20 11010100 ROL   <$02               09 02 09 01 09    22638 
114b 0b93 0009 0000 1098 1ff1 20 11011001 ROL   <$01               09 01 09 00 30    22644 
114d 0b93 0009 0000 1098 1ff1 20 11011001 ROL   <$00               09 00 30 01 20    22650 
114f 0b93 0009 0000 1098 1ff1 20 11010000 LEAX  $1,X               30 01 20 e2 8c    22656 
1151 0b93 000a 0000 1098 1ff1 20 11010000 BRA   $1135              20 e2 8c 00 00    22661 
1135 0b93 000a 0000 1098 1ff1 20 11010000 LDD   ,U                 ec c4 10 93 00    22664 
1137 0b93 000a 0000 1098 1ff1 20 11010000 CMPD  <$00               10 93 00 22 0b    22669 
113a 0b93 000a 0000 1098 1ff1 20 11010000 BHI   $1147              22 0b 25 15 ec    22676 
1147 0b93 000a 0000 1098 1ff1 20 11010000 ASL   <$03               08 03 09 02 09    22679 
1149 0b93 000a 0000 1098 1ff1 20 11010100 ROL   <$02               09 02 09 01 09    22685 
114b 0b93 000a 0000 1098 1ff1 20 11011001 ROL   <$01               09 01 09 00 30    22691 
114d 0b93 000a 0000 1098 1ff1 20 11011001 ROL   <$00               09 00 30 01 20    22697 
114f 0b93 000a 0000 1098 1ff1 20 11010000 LEAX  $1,X               30 01 20 e2 8c    22703 
1151 0b93 000b 0000 1098 1ff1 20 11010000 BRA   $1135              20 e2 8c 00 00    22708 
1135 0b93 000b 0000 1098 1ff1 20 11010000 LDD   ,U                 ec c4 10 93 00    22711 
1137 0b93 000b 0000 1098 1ff1 20 11010000 CMPD  <$00               10 93 00 22 0b    22716 
113a 0b93 000b 0000 1098 1ff1 20 11010000 BHI   $1147              22 0b 25 15 ec    22723 
1147 0b93 000b 0000 1098 1ff1 20 11010000 ASL   <$03               08 03 09 02 09    22726 
1149 0b93 000b 0000 1098 1ff1 20 11010100 ROL   <$02               09 02 09 01 09    22732 
114b 0b93 000b 0000 1098 1ff1 20 11010011 ROL   <$01               09 01 09 00 30    22738 
114d 0b93 000b 0000 1098 1ff1 20 11011001 ROL   <$00               09 00 30 01 20    22744 
114f 0b93 000b 0000 1098 1ff1 20 11010000 LEAX  $1,X               30 01 20 e2 8c    22750 
1151 0b93 000c 0000 1098 1ff1 20 11010000 BRA   $1135              20 e2 8c 00 00    22755 
1135 0b93 000c 0000 1098 1ff1 20 11010000 LDD   ,U                 ec c4 10 93 00    22758 
1137 0b93 000c 0000 1098 1ff1 20 11010000 CMPD  <$00               10 93 00 22 0b    22763 
113a 0b93 000c 0000 1098 1ff1 20 11011001 BHI   $1147              22 0b 25 15 ec    22770 
113c 0b93 000c 0000 1098 1ff1 20 11011001 BCS   $1153              25 15 ec 42 10    22773 
1153 0b93 000c 0000 1098 1ff1 20 11011001 CMPX  #$0000             8c 00 00 27 2d    22776 
1156 0b93 000c 0000 1098 1ff1 20 11010000 BEQ   $1185              27 2d 04 00 06    22780 
1158 0b93 000c 0000 1098 1ff1 20 11010000 LSR   <$00               04 00 06 01 06    22783 
115a 0b93 000c 0000 1098 1ff1 20 11010001 ROR   <$01               06 01 06 02 06    22789 
115c 0b93 000c 0000 1098 1ff1 20 11011001 ROR   <$02               06 02 06 03 dc    22795 
115e 0b93 000c 0000 1098 1ff1 20 11011000 ROR   <$03               06 03 dc 00 10    22801 
1160 0b93 000c 0000 1098 1ff1 20 11010100 LDD   <$00               dc 00 10 a3 c4    22807 
1162 07ff 000c 0000 1098 1ff1 20 11010000 CMPD  ,U                 10 a3 c4 25 09    22812 
1165 07ff 000c 0000 1098 1ff1 20 11011001 BCS   $1170              25 09 22 18 dc    22819 
1170 07ff 000c 0000 1098 1ff1 20 11011001 LDD   $2,U               ec 42 93 02 ed    22822 
1172 c787 000c 0000 1098 1ff1 20 11011001 SUBD  <$02               93 02 ed 42 ec    22828 
1174 3f87 000c 0000 1098 1ff1 20 11010000 STD   $2,U               ed 42 ec c4 24    22834 
1176 3f87 000c 0000 1098 1ff1 20 11010000 LDD   ,U                 ec c4 24 03 83    22840 
1178 0b93 000c 0000 1098 1ff1 20 11010000 BCC   $117D              24 03 83 00 01    22845 
117d 0b93 000c 0000 1098 1ff1 20 11010000 SUBD  <$00               93 00 ed c4 30    22848 
117f 0394 000c 0000 1098 1ff1 20 11010000 STD   ,U                 ed c4 30 1f 26    22854 
1181 0394 000c 0000 1098 1ff1 20 11010000 LEAX  -$1,X              30 1f 26 d3 35    22859 
1183 0394 000b 0000 1098 1ff1 20 11010000 BNE   $1158              26 d3 35 96 fc    22864 
1158 0394 000b 0000 1098 1ff1 20 11010000 LSR   <$00               04 00 06 01 06    22867 
115a 0394 000b 0000 1098 1ff1 20 11010001 ROR   <$01               06 01 06 02 06    22873 
115c 0394 000b 0000 1098 1ff1 20 11011001 ROR   <$02               06 02 06 03 dc    22879 
115e 0394 000b 0000 1098 1ff1 20 11011000 ROR   <$03               06 03 dc 00 10    22885 
1160 0394 000b 0000 1098 1ff1 20 11010100 LDD   <$00               dc 00 10 a3 c4    22891 
1162 03ff 000b 0000 1098 1ff1 20 11010000 CMPD  ,U                 10 a3 c4 25 09    22896 
1165 03ff 000b 0000 1098 1ff1 20 11010000 BCS   $1170              25 09 22 18 dc    22903 
1167 03ff 000b 0000 1098 1ff1 20 11010000 BHI   $1181              22 18 dc 02 10    22906 
1181 03ff 000b 0000 1098 1ff1 20 11010000 LEAX  -$1,X              30 1f 26 d3 35    22909 
1183 03ff 000a 0000 1098 1ff1 20 11010000 BNE   $1158              26 d3 35 96 fc    22914 
1158 03ff 000a 0000 1098 1ff1 20 11010000 LSR   <$00               04 00 06 01 06    22917 
115a 03ff 000a 0000 1098 1ff1 20 11010001 ROR   <$01               06 01 06 02 06    22923 
115c 03ff 000a 0000 1098 1ff1 20 11011001 ROR   <$02               06 02 06 03 dc    22929 
115e 03ff 000a 0000 1098 1ff1 20 11011000 ROR   <$03               06 03 dc 00 10    22935 
1160 03ff 000a 0000 1098 1ff1 20 11010100 LDD   <$00               dc 00 10 a3 c4    22941 
1162 01ff 000a 0000 1098 1ff1 20 11010000 CMPD  ,U                 10 a3 c4 25 09    22946 
1165 01ff 000a 0000 1098 1ff1 20 11011001 BCS   $1170              25 09 22 18 dc    22953 
1170 01ff 000a 0000 1098 1ff1 20 11011001 LDD   $2,U               ec 42 93 02 ed    22956 
1172 3f87 000a 0000 1098 1ff1 20 11010001 SUBD  <$02               93 02 ed 42 ec    22962 
1174 5d87 000a 0000 1098 1ff1 20 11010001 STD   $2,U               ed 42 ec c4 24    22968 
1176 5d87 000a 0000 1098 1ff1 20 11010001 LDD   ,U                 ec c4 24 03 83    22974 
1178 0394 000a 0000 1098 1ff1 20 11010001 BCC   $117D              24 03 83 00 01    22979 
117a 0394 000a 0000 1098 1ff1 20 11010001 SUBD  #$0001             83 00 01 93 00    22982 
117d 0393 000a 0000 1098 1ff1 20 11010000 SUBD  <$00               93 00 ed c4 30    22986 
117f 0194 000a 0000 1098 1ff1 20 11010000 STD   ,U                 ed c4 30 1f 26    22992 
1181 0194 000a 0000 1098 1ff1 20 11010000 LEAX  -$1,X              30 1f 26 d3 35    22997 
1183 0194 0009 0000 1098 1ff1 20 11010000 BNE   $1158              26 d3 35 96 fc    23002 
1158 0194 0009 0000 1098 1ff1 20 11010000 LSR   <$00               04 00 06 01 06    23005 
115a 0194 0009 0000 1098 1ff1 20 11010101 ROR   <$01               06 01 06 02 06    23011 
115c 0194 0009 0000 1098 1ff1 20 11011001 ROR   <$02               06 02 06 03 dc    23017 
115e 0194 0009 0000 1098 1ff1 20 11011000 ROR   <$03               06 03 dc 00 10    23023 
1160 0194 0009 0000 1098 1ff1 20 11010100 LDD   <$00               dc 00 10 a3 c4    23029 
1162 00ff 0009 0000 1098 1ff1 20 11010000 CMPD  ,U                 10 a3 c4 25 09    23034 
1165 00ff 0009 0000 1098 1ff1 20 11011001 BCS   $1170              25 09 22 18 dc    23041 
1170 00ff 0009 0000 1098 1ff1 20 11011001 LDD   $2,U               ec 42 93 02 ed    23044 
1172 5d87 0009 0000 1098 1ff1 20 11010001 SUBD  <$02               93 02 ed 42 ec    23050 
1174 6c87 0009 0000 1098 1ff1 20 11010001 STD   $2,U               ed 42 ec c4 24    23056 
1176 6c87 0009 0000 1098 1ff1 20 11010001 LDD   ,U                 ec c4 24 03 83    23062 
1178 0194 0009 0000 1098 1ff1 20 11010001 BCC   $117D              24 03 83 00 01    23067 
117a 0194 0009 0000 1098 1ff1 20 11010001 SUBD  #$0001             83 00 01 93 00    23070 
117d 0193 0009 0000 1098 1ff1 20 11010000 SUBD  <$00               93 00 ed c4 30    23074 
117f 0094 0009 0000 1098 1ff1 20 11010000 STD   ,U                 ed c4 30 1f 26    23080 
1181 0094 0009 0000 1098 1ff1 20 11010000 LEAX  -$1,X              30 1f 26 d3 35    23085 
1183 0094 0008 0000 1098 1ff1 20 11010000 BNE   $1158              26 d3 35 96 fc    23090 
1158 0094 0008 0000 1098 1ff1 20 11010000 LSR   <$00               04 00 06 01 06    23093 
115a 0094 0008 0000 1098 1ff1 20 11010100 ROR   <$01               06 01 06 02 06    23099 
115c 0094 0008 0000 1098 1ff1 20 11010001 ROR   <$02               06 02 06 03 dc    23105 
115e 0094 0008 0000 1098 1ff1 20 11011001 ROR   <$03               06 03 dc 00 10    23111 
1160 0094 0008 0000 1098 1ff1 20 11011000 LDD   <$00               dc 00 10 a3 c4    23117 
1162 007f 0008 0000 1098 1ff1 20 11010000 CMPD  ,U                 10 a3 c4 25 09    23122 
1165 007f 0008 0000 1098 1ff1 20 11011001 BCS   $1170              25 09 22 18 dc    23129 
1170 007f 0008 0000 1098 1ff1 20 11011001 LDD   $2,U               ec 42 93 02 ed    23132 
1172 6c87 0008 0000 1098 1ff1 20 11010001 SUBD  <$02               93 02 ed 42 ec    23138 
1174 7407 0008 0000 1098 1ff1 20 11010001 STD   $2,U               ed 42 ec c4 24    23144 
1176 7407 0008 0000 1098 1ff1 20 11010001 LDD   ,U                 ec c4 24 03 83    23150 
1178 0094 0008 0000 1098 1ff1 20 11010001 BCC   $117D              24 03 83 00 01    23155 
117a 0094 0008 0000 1098 1ff1 20 11010001 SUBD  #$0001             83 00 01 93 00    23158 
117d 0093 0008 0000 1098 1ff1 20 11010000 SUBD  <$00               93 00 ed c4 30    23162 
117f 0014 0008 0000 1098 1ff1 20 11010000 STD   ,U                 ed c4 30 1f 26    23168 
1181 0014 0008 0000 1098 1ff1 20 11010000 LEAX  -$1,X              30 1f 26 d3 35    23173 
1183 0014 0007 0000 1098 1ff1 20 11010000 BNE   $1158              26 d3 35 96 fc    23178 
1158 0014 0007 0000 1098 1ff1 20 11010000 LSR   <$00               04 00 06 01 06    23181 
115a 0014 0007 0000 1098 1ff1 20 11010100 ROR   <$01               06 01 06 02 06    23187 
115c 0014 0007 0000 1098 1ff1 20 11010001 ROR   <$02               06 02 06 03 dc    23193 
115e 0014 0007 0000 1098 1ff1 20 11011000 ROR   <$03               06 03 dc 00 10    23199 
1160 0014 0007 0000 1098 1ff1 20 11010000 LDD   <$00               dc 00 10 a3 c4    23205 
1162 003f 0007 0000 1098 1ff1 20 11010000 CMPD  ,U                 10 a3 c4 25 09    23210 
1165 003f 0007 0000 1098 1ff1 20 11010000 BCS   $1170              25 09 22 18 dc    23217 
1167 003f 0007 0000 1098 1ff1 20 11010000 BHI   $1181              22 18 dc 02 10    23220 
1181 003f 0007 0000 1098 1ff1 20 11010000 LEAX  -$1,X              30 1f 26 d3 35    23223 
1183 003f 0006 0000 1098 1ff1 20 11010000 BNE   $1158              26 d3 35 96 fc    23228 
1158 003f 0006 0000 1098 1ff1 20 11010000 LSR   <$00               04 00 06 01 06    23231 
115a 003f 0006 0000 1098 1ff1 20 11010100 ROR   <$01               06 01 06 02 06    23237 
115c 003f 0006 0000 1098 1ff1 20 11010001 ROR   <$02               06 02 06 03 dc    23243 
115e 003f 0006 0000 1098 1ff1 20 11011000 ROR   <$03               06 03 dc 00 10    23249 
1160 003f 0006 0000 1098 1ff1 20 11010000 LDD   <$00               dc 00 10 a3 c4    23255 
1162 001f 0006 0000 1098 1ff1 20 11010000 CMPD  ,U                 10 a3 c4 25 09    23260 
1165 001f 0006 0000 1098 1ff1 20 11010000 BCS   $1170              25 09 22 18 dc    23267 
1167 001f 0006 0000 1098 1ff1 20 11010000 BHI   $1181              22 18 dc 02 10    23270 
1181 001f 0006 0000 1098 1ff1 20 11010000 LEAX  -$1,X              30 1f 26 d3 35    23273 
1183 001f 0005 0000 1098 1ff1 20 11010000 BNE   $1158              26 d3 35 96 fc    23278 
1158 001f 0005 0000 1098 1ff1 20 11010000 LSR   <$00               04 00 06 01 06    23281 
115a 001f 0005 0000 1098 1ff1 20 11010100 ROR   <$01               06 01 06 02 06    23287 
115c 001f 0005 0000 1098 1ff1 20 11010001 ROR   <$02               06 02 06 03 dc    23293 
115e 001f 0005 0000 1098 1ff1 20 11011000 ROR   <$03               06 03 dc 00 10    23299 
1160 001f 0005 0000 1098 1ff1 20 11010000 LDD   <$00               dc 00 10 a3 c4    23305 
1162 000f 0005 0000 1098 1ff1 20 11010000 CMPD  ,U                 10 a3 c4 25 09    23310 
1165 000f 0005 0000 1098 1ff1 20 11011001 BCS   $1170              25 09 22 18 dc    23317 
1170 000f 0005 0000 1098 1ff1 20 11011001 LDD   $2,U               ec 42 93 02 ed    23320 
1172 7407 0005 0000 1098 1ff1 20 11010001 SUBD  <$02               93 02 ed 42 ec    23326 
1174 74f7 0005 0000 1098 1ff1 20 11010001 STD   $2,U               ed 42 ec c4 24    23332 
1176 74f7 0005 0000 1098 1ff1 20 11010001 LDD   ,U                 ec c4 24 03 83    23338 
1178 0014 0005 0000 1098 1ff1 20 11010001 BCC   $117D              24 03 83 00 01    23343 
117a 0014 0005 0000 1098 1ff1 20 11010001 SUBD  #$0001             83 00 01 93 00    23346 
117d 0013 0005 0000 1098 1ff1 20 11010000 SUBD  <$00               93 00 ed c4 30    23350 
117f 0004 0005 0000 1098 1ff1 20 11010000 STD   ,U                 ed c4 30 1f 26    23356 
1181 0004 0005 0000 1098 1ff1 20 11010000 LEAX  -$1,X              30 1f 26 d3 35    23361 
1183 0004 0004 0000 1098 1ff1 20 11010000 BNE   $1158              26 d3 35 96 fc    23366 
1158 0004 0004 0000 1098 1ff1 20 11010000 LSR   <$00               04 00 06 01 06    23369 
115a 0004 0004 0000 1098 1ff1 20 11010100 ROR   <$01               06 01 06 02 06    23375 
115c 0004 0004 0000 1098 1ff1 20 11010001 ROR   <$02               06 02 06 03 dc    23381 
115e 0004 0004 0000 1098 1ff1 20 11011001 ROR   <$03               06 03 dc 00 10    23387 
1160 0004 0004 0000 1098 1ff1 20 11011000 LDD   <$00               dc 00 10 a3 c4    23393 
1162 0007 0004 0000 1098 1ff1 20 11010000 CMPD  ,U                 10 a3 c4 25 09    23398 
1165 0007 0004 0000 1098 1ff1 20 11010000 BCS   $1170              25 09 22 18 dc    23405 
1167 0007 0004 0000 1098 1ff1 20 11010000 BHI   $1181              22 18 dc 02 10    23408 
1181 0007 0004 0000 1098 1ff1 20 11010000 LEAX  -$1,X              30 1f 26 d3 35    23411 
1183 0007 0003 0000 1098 1ff1 20 11010000 BNE   $1158              26 d3 35 96 fc    23416 
1158 0007 0003 0000 1098 1ff1 20 11010000 LSR   <$00               04 00 06 01 06    23419 
115a 0007 0003 0000 1098 1ff1 20 11010100 ROR   <$01               06 01 06 02 06    23425 
115c 0007 0003 0000 1098 1ff1 20 11010001 ROR   <$02               06 02 06 03 dc    23431 
115e 0007 0003 0000 1098 1ff1 20 11011001 ROR   <$03               06 03 dc 00 10    23437 
1160 0007 0003 0000 1098 1ff1 20 11011000 LDD   <$00               dc 00 10 a3 c4    23443 
1162 0003 0003 0000 1098 1ff1 20 11010000 CMPD  ,U                 10 a3 c4 25 09    23448 
1165 0003 0003 0000 1098 1ff1 20 11011001 BCS   $1170              25 09 22 18 dc    23455 
1170 0003 0003 0000 1098 1ff1 20 11011001 LDD   $2,U               ec 42 93 02 ed    23458 
1172 74f7 0003 0000 1098 1ff1 20 11010001 SUBD  <$02               93 02 ed 42 ec    23464 
1174 7533 0003 0000 1098 1ff1 20 11010001 STD   $2,U               ed 42 ec c4 24    23470 
1176 7533 0003 0000 1098 1ff1 20 11010001 LDD   ,U                 ec c4 24 03 83    23476 
1178 0004 0003 0000 1098 1ff1 20 11010001 BCC   $117D              24 03 83 00 01    23481 
117a 0004 0003 0000 1098 1ff1 20 11010001 SUBD  #$0001             83 00 01 93 00    23484 
117d 0003 0003 0000 1098 1ff1 20 11010000 SUBD  <$00               93 00 ed c4 30    23488 
117f 0000 0003 0000 1098 1ff1 20 11010100 STD   ,U                 ed c4 30 1f 26    23494 
1181 0000 0003 0000 1098 1ff1 20 11010100 LEAX  -$1,X              30 1f 26 d3 35    23499 
1183 0000 0002 0000 1098 1ff1 20 11010000 BNE   $1158              26 d3 35 96 fc    23504 
1158 0000 0002 0000 1098 1ff1 20 11010000 LSR   <$00               04 00 06 01 06    23507 
115a 0000 0002 0000 1098 1ff1 20 11010100 ROR   <$01               06 01 06 02 06    23513 
115c 0000 0002 0000 1098 1ff1 20 11010001 ROR   <$02               06 02 06 03 dc    23519 
115e 0000 0002 0000 1098 1ff1 20 11011001 ROR   <$03               06 03 dc 00 10    23525 
1160 0000 0002 0000 1098 1ff1 20 11011000 LDD   <$00               dc 00 10 a3 c4    23531 
1162 0001 0002 0000 1098 1ff1 20 11010000 CMPD  ,U                 10 a3 c4 25 09    23536 
1165 0001 0002 0000 1098 1ff1 20 11010000 BCS   $1170              25 09 22 18 dc    23543 
1167 0001 0002 0000 1098 1ff1 20 11010000 BHI   $1181              22 18 dc 02 10    23546 
1181 0001 0002 0000 1098 1ff1 20 11010000 LEAX  -$1,X              30 1f 26 d3 35    23549 
1183 0001 0001 0000 1098 1ff1 20 11010000 BNE   $1158              26 d3 35 96 fc    23554 
1158 0001 0001 0000 1098 1ff1 20 11010000 LSR   <$00               04 00 06 01 06    23557 
115a 0001 0001 0000 1098 1ff1 20 11010100 ROR   <$01               06 01 06 02 06    23563 
115c 0001 0001 0000 1098 1ff1 20 11010101 ROR   <$02               06 02 06 03 dc    23569 
115e 0001 0001 0000 1098 1ff1 20 11011001 ROR   <$03               06 03 dc 00 10    23575 
1160 0001 0001 0000 1098 1ff1 20 11011000 LDD   <$00               dc 00 10 a3 c4    23581 
1162 0000 0001 0000 1098 1ff1 20 11010100 CMPD  ,U                 10 a3 c4 25 09    23586 
1165 0000 0001 0000 1098 1ff1 20 11010100 BCS   $1170              25 09 22 18 dc    23593 
1167 0000 0001 0000 1098 1ff1 20 11010100 BHI   $1181              22 18 dc 02 10    23596 
1169 0000 0001 0000 1098 1ff1 20 11010100 LDD   <$02               dc 02 10 a3 42    23599 
116b fff1 0001 0000 1098 1ff1 20 11011000 CMPD  $2,U               10 a3 42 22 11    23604 
116e fff1 0001 0000 1098 1ff1 20 11011000 BHI   $1181              22 11 ec 42 93    23612 
1181 fff1 0001 0000 1098 1ff1 20 11011000 LEAX  -$1,X              30 1f 26 d3 35    23615 
1183 fff1 0000 0000 1098 1ff1 20 11011100 BNE   $1158              26 d3 35 96 fc    23620 
1185 fff1 0000 0000 1098 1ff1 20 11011100 PULS  A,B,X,PC           35 96 fc 10 a0    23623 
1125 0048 fff1 0000 1098 1ff7 20 11011100 LDU   #$109C             ce 10 9c 8d 02    23634 
1128 0048 fff1 0000 109c 1ff7 20 11010000 BSR   $112C              8d 02 35 d0 34    23637 
112c 0048 fff1 0000 109c 1ff5 20 11010000 PSHS  X,B,A              34 16 9f 02 8e    23644 
112e 0048 fff1 0000 109c 1ff1 20 11010000 STX   <$02               9f 02 8e 00 00    23653 
1130 0048 fff1 0000 109c 1ff1 20 11011000 LDX   #$0000             8e 00 00 9f 00    23658 
1133 0048 0000 0000 109c 1ff1 20 11010100 STX   <$00               9f 00 ec c4 10    23661 
1135 0048 0000 0000 109c 1ff1 20 11010100 LDD   ,U                 ec c4 10 93 00    23666 
1137 0000 0000 0000 109c 1ff1 20 11010100 CMPD  <$00               10 93 00 22 0b    23671 
113a 0000 0000 0000 109c 1ff1 20 11010100 BHI   $1147              22 0b 25 15 ec    23678 
113c 0000 0000 0000 109c 1ff1 20 11010100 BCS   $1153              25 15 ec 42 10    23681 
113e 0000 0000 0000 109c 1ff1 20 11010100 LDD   $2,U               ec 42 10 93 02    23684 
1140 0b93 0000 0000 109c 1ff1 20 11010000 CMPD  <$02               10 93 02 22 02    23690 
1143 0b93 0000 0000 109c 1ff1 20 11010001 BHI   $1147              22 02 25 0c 08    23697 
1145 0b93 0000 0000 109c 1ff1 20 11010001 BCS   $1153              25 0c 08 03 09    23700 
1153 0b93 0000 0000 109c 1ff1 20 11010001 CMPX  #$0000             8c 00 00 27 2d    23703 
1156 0b93 0000 0000 109c 1ff1 20 11010100 BEQ   $1185              27 2d 04 00 06    23707 
1185 0b93 0000 0000 109c 1ff1 20 11010100 PULS  A,B,X,PC           35 96 fc 10 a0    23710 
112a 0048 fff1 0000 109c 1ff7 20 11010100 PULS  X,U,PC             35 d0 34 16 9f    23721 
118e 0048 1086 0000 1099 1ffd 20 11010100 LDD   $109E              fc 10 9e fd 10    23732 
1191 0b93 1086 0000 1099 1ffd 20 11010000 STD   $1098              fd 10 98 39 cd    23738 
1194 0b93 1086 0000 1099 1ffd 20 11010000 RTS                      39 cd cd cd cd    23744 
107e 0b93 1086 0000 1099 1fff 20 11010000 CLRA                     4f 1f 8b 10 fe    23749 
107f 0093 1086 0000 1099 1fff 20 11010100 TFR   A,DP               1f 8b 10 fe 10    23751 
1081 0093 1086 0000 1099 1fff 00 11010100 LDS   $10A2              10 fe 10 a2 39    23757 
1085 0093 1086 0000 1099 7f34 00 11010000 RTS                      39 0b 37 37 37    23764 
8302 0093 1086 0000 1099 7f36 00 11010000 BRA   $82BB              20 b7 ae 62 8c    23769 
