1000 0044 abab aaf1 02e0 7f34 00 10000100 ORCC  #$50       1a 50 8e fe fa        0 
1002 0044 abab aaf1 02e0 7f34 00 11010100 LDX   #$FEFA     8e fe fa bf ff        3 
1005 0044 fefa aaf1 02e0 7f34 00 11011000 STX   $FFFA      bf ff fa 8e fe        6 
1008 0044 fefa aaf1 02e0 7f34 00 11011000 LDX   #$FEF1     8e fe f1 bf ff       12 
100b 0044 fef1 aaf1 02e0 7f34 00 11011000 STX   $FFF4      bf ff f4 8e fe       15 
100e 0044 fef1 aaf1 02e0 7f34 00 11011000 LDX   #$FEEE     8e fe ee bf ff       21 
1011 0044 feee aaf1 02e0 7f34 00 11011000 STX   $FFF2      bf ff f2 86 16       24 
1014 0044 feee aaf1 02e0 7f34 00 11011000 LDA   #$16       86 16 b7 fe fa       30 
1016 1644 feee aaf1 02e0 7f34 00 11010000 STA   $FEFA      b7 fe fa b7 fe       32 
1019 1644 feee aaf1 02e0 7f34 00 11010000 STA   $FEF1      b7 fe f1 b7 fe       37 
101c 1644 feee aaf1 02e0 7f34 00 11010000 STA   $FEFE      b7 fe fe 8e 02       42 
101f 1644 feee aaf1 02e0 7f34 00 11010000 LDX   #$0209     8e 02 09 bf fe       47 
1022 1644 0209 aaf1 02e0 7f34 00 11010000 STX   $FEFB      bf fe fb 8e 02       50 
1025 1644 0209 aaf1 02e0 7f34 00 11010000 LDX   #$020F     8e 02 0f bf fe       56 
1028 1644 020f aaf1 02e0 7f34 00 11010000 STX   $FEF2      bf fe f2 bf fe       59 
102b 1644 020f aaf1 02e0 7f34 00 11010000 STX   $FEEF      bf fe ef 86 3b       65 
102e 1644 020f aaf1 02e0 7f34 00 11010000 LDA   #$3B       86 3b b7 01 00       71 
1030 3b44 020f aaf1 02e0 7f34 00 11010000 STA   $0100      b7 01 00 b7 01       73 
1033 3b44 020f aaf1 02e0 7f34 00 11010000 STA   $0103      b7 01 03 b7 01       78 
1036 3b44 020f aaf1 02e0 7f34 00 11010000 STA   $0106      b7 01 06 86 20       83 
1039 3b44 020f aaf1 02e0 7f34 00 11010000 LDA   #$20       86 20 1f 8b ce       88 
103b 2044 020f aaf1 02e0 7f34 00 11010000 TFR   A,DP       1f 8b ce 21 8c       90 
103d 2044 020f aaf1 02e0 7f34 20 11010000 LDU   #$218C     ce 21 8c 1f 31       96 
1040 2044 020f aaf1 218c 7f34 20 11010000 TFR   U,X        1f 31 1f 32 10       99 
1042 2044 218c aaf1 218c 7f34 20 11010000 TFR   U,Y        1f 32 10 ff 21      105 
1044 2044 218c 218c 218c 7f34 20 11010000 STS   $2100      10 ff 21 00 10      111 
1048 2044 218c 218c 218c 7f34 20 11010000 LDS   #$2F80     10 ce 2f 80 3a      118 
104c 2044 218c 218c 218c 2f80 20 11010000 ABX              3a 89 12 99 34      122 
104d 2044 21d0 218c 218c 2f80 20 11010000 ADCA  #$12       89 12 99 34 b9      125 
104f 3244 21d0 218c 218c 2f80 20 11010000 ADCA  <$34       99 34 b9 21 04      127 
1051 3244 21d0 218c 218c 2f80 20 11010000 ADCA  $2104      b9 21 04 a9 9f      131 
1054 ff44 21d0 218c 218c 2f80 20 11011000 ADCA  [$2108]    a9 9f 21 08 a9      136 
1058 cc44 21d0 218c 218c 2f80 20 11111001 ADCA  ,X         a9 84 a9 a1 a9      145 
105a cd44 21d0 218c 218c 2f80 20 11011000 ADCA  ,Y++       a9 a1 a9 d3 c9      149 
105c f044 21d0 218e 218c 2f80 20 11111000 ADCA  [,--U]     a9 d3 c9 12 d9      156 
105e f044 21d0 218e 218a 2f80 20 11011000 ADCB  #$12       c9 12 d9 34 f9      166 
1060 f056 21d0 218e 218a 2f80 20 11010000 ADCB  <$34       d9 34 f9 21 04      168 
1062 f056 21d0 218e 218a 2f80 20 11010000 ADCB  $2104      f9 21 04 e9 9f      172 
1065 f023 21d0 218e 218a 2f80 20 11110001 ADCB  [$2108]    e9 9f 21 08 e9      177 
1069 f0f1 21d0 218e 218a 2f80 20 11111000 ADCB  ,X         e9 84 e9 a1 e9      186 
106b f0f1 21d0 218e 218a 2f80 20 11011000 ADCB  ,Y++       e9 a1 e9 d3 8b      190 
106d f014 21d0 2190 218a 2f80 20 11010001 ADCB  [,--U]     e9 d3 8b 12 9b      197 
106f f015 21d0 2190 2188 2f80 20 11010000 ADDA  #$12       8b 12 9b 34 bb      207 
1071 0215 21d0 2190 2188 2f80 20 11010001 ADDA  <$34       9b 34 bb 21 04      209 
1073 0215 21d0 2190 2188 2f80 20 11010000 ADDA  $2104      bb 21 04 ab 9f      213 
1076 cf15 21d0 2190 2188 2f80 20 11011000 ADDA  [$2108]    ab 9f 21 08 ab      218 
107a 9c15 21d0 2190 2188 2f80 20 11111001 ADDA  ,X         ab 84 ab a1 ab      227 
107c 9c15 21d0 2190 2188 2f80 20 11011000 ADDA  ,Y++       ab a1 ab d3 cb      231 
107e bf15 21d0 2192 2188 2f80 20 11011000 ADDA  [,--U]     ab d3 cb 12 db      238 
1080 bf15 21d0 2192 2186 2f80 20 11011000 ADDB  #$12       cb 12 db 34 fb      248 
1082 bf27 21d0 2192 2186 2f80 20 11010000 ADDB  <$34       db 34 fb 21 04      250 
1084 bf27 21d0 2192 2186 2f80 20 11010000 ADDB  $2104      fb 21 04 eb 9f      254 
1087 bff4 21d0 2192 2186 2f80 20 11111000 ADDB  [$2108]    eb 9f 21 08 eb      259 
108b bfc1 21d0 2192 2186 2f80 20 11111001 ADDB  ,X         eb 84 eb a1 eb      268 
108d bfc1 21d0 2192 2186 2f80 20 11011000 ADDB  ,Y++       eb a1 eb d3 c3      272 
108f bfe4 21d0 2194 2186 2f80 20 11011000 ADDB  [,--U]     eb d3 c3 00 12      279 
1091 bfe4 21d0 2194 2184 2f80 20 11011000 ADDD  #$0012     c3 00 12 d3 34      289 
1094 bff6 21d0 2194 2184 2f80 20 11011000 ADDD  <$34       d3 34 f3 21 04      293 
1096 bff6 21d0 2194 2184 2f80 20 11011000 ADDD  $2104      f3 21 04 e3 9f      299 
1099 8dc3 21d0 2194 2184 2f80 20 11011001 ADDD  [$2108]    e3 9f 21 08 e3      306 
109d 5b90 21d0 2194 2184 2f80 20 11010011 ADDD  ,X         e3 84 e3 a1 e3      317 
109f 5b90 21d0 2194 2184 2f80 20 11010000 ADDD  ,Y++       e3 a1 e3 d3 84      323 
10a1 7e98 21d0 2196 2184 2f80 20 11010000 ADDD  [,--U]     e3 d3 84 12 94      332 
10a3 7e98 21d0 2196 2182 2f80 20 11010000 ANDA  #$12       84 12 94 34 b4      344 
10a5 1298 21d0 2196 2182 2f80 20 11010000 ANDA  <$34       94 34 b4 21 04      346 
10a7 0098 21d0 2196 2182 2f80 20 11010100 ANDA  $2104      b4 21 04 a4 9f      350 
10aa 0098 21d0 2196 2182 2f80 20 11010100 ANDA  [$2108]    a4 9f 21 08 a4      355 
10ae 0098 21d0 2196 2182 2f80 20 11010100 ANDA  ,X         a4 84 a4 a1 a4      364 
10b0 0098 21d0 2196 2182 2f80 20 11010100 ANDA  ,Y++       a4 a1 a4 d3 c4      368 
10b2 0098 21d0 2198 2182 2f80 20 11010100 ANDA  [,--U]     a4 d3 c4 12 d4      375 
10b4 0098 21d0 2198 2180 2f80 20 11010100 ANDB  #$12       c4 12 d4 34 f4      385 
10b6 0010 21d0 2198 2180 2f80 20 11010000 ANDB  <$34       d4 34 f4 21 04      387 
10b8 0000 21d0 2198 2180 2f80 20 11010100 ANDB  $2104      f4 21 04 e4 9f      391 
10bb 0000 21d0 2198 2180 2f80 20 11010100 ANDB  [$2108]    e4 9f 21 08 e4      396 
10bf 0000 21d0 2198 2180 2f80 20 11010100 ANDB  ,X         e4 84 e4 a1 e4      405 
10c1 0000 21d0 2198 2180 2f80 20 11010100 ANDB  ,Y++       e4 a1 e4 d3 1c      409 
10c3 0000 21d0 219a 2180 2f80 20 11010100 ANDB  [,--U]     e4 d3 1c ff 48      416 
10c5 0000 21d0 219a 217e 2f80 20 11010100 ANDCC #$FF       1c ff 48 58 08      426 
10c7 0000 21d0 219a 217e 2f80 20 11010100 ASLA             48 58 08 34 78      429 
10c8 0000 21d0 219a 217e 2f80 20 11010100 ASLB             58 08 34 78 21      431 
10c9 0000 21d0 219a 217e 2f80 20 11010100 ASL   <$34       08 34 78 21 04      433 
10cb 0000 21d0 219a 217e 2f80 20 11010100 ASL   $2104      78 21 04 68 9f      439 
10ce 0000 21d0 219a 217e 2f80 20 11011001 ASL   [$2108]    68 9f 21 08 68      446 
10d2 0000 21d0 219a 217e 2f80 20 11011001 ASL   ,X         68 84 68 a1 68      457 
10d4 0000 21d0 219a 217e 2f80 20 11010100 ASL   ,Y++       68 a1 68 d3 47      463 
10d6 0000 21d0 219c 217e 2f80 20 11010000 ASL   [,--U]     68 d3 47 57 07      472 
10d8 0000 21d0 219c 217c 2f80 20 11010100 ASRA             47 57 07 34 77      484 
10d9 0000 21d0 219c 217c 2f80 20 11010100 ASRB             57 07 34 77 21      486 
10da 0000 21d0 219c 217c 2f80 20 11010100 ASR   <$34       07 34 77 21 04      488 
10dc 0000 21d0 219c 217c 2f80 20 11010100 ASR   $2104      77 21 04 67 9f      494 
10df 0000 21d0 219c 217c 2f80 20 11011000 ASR   [$2108]    67 9f 21 08 67      501 
10e3 0000 21d0 219c 217c 2f80 20 11011000 ASR   ,X         67 84 67 a1 67      512 
10e5 0000 21d0 219c 217c 2f80 20 11010100 ASR   ,Y++       67 a1 67 d3 24      518 
10e7 0000 21d0 219e 217c 2f80 20 11010001 ASR   [,--U]     67 d3 24 00 25      527 
10e9 0000 21d0 219e 217a 2f80 20 11010100 BCC   $10EB      24 00 25 00 27      539 
10eb 0000 21d0 219e 217a 2f80 20 11010100 BCS   $10ED      25 00 27 00 2c      542 
10ed 0000 21d0 219e 217a 2f80 20 11010100 BEQ   $10EF      27 00 2c 00 2e      545 
10ef 0000 21d0 219e 217a 2f80 20 11010100 BGE   $10F1      2c 00 2e 00 22      548 
10f1 0000 21d0 219e 217a 2f80 20 11010100 BGT   $10F3      2e 00 22 00 24      551 
10f3 0000 21d0 219e 217a 2f80 20 11010100 BHI   $10F5      22 00 24 00 2f      554 
10f5 0000 21d0 219e 217a 2f80 20 11010100 BCC   $10F7      24 00 2f 00 25      557 
10f7 0000 21d0 219e 217a 2f80 20 11010100 BLE   $10F9      2f 00 25 00 23      560 
10f9 0000 21d0 219e 217a 2f80 20 11010100 BCS   $10FB      25 00 23 00 2d      563 
10fb 0000 21d0 219e 217a 2f80 20 11010100 BLS   $10FD      23 00 2d 00 2b      566 
10fd 0000 21d0 219e 217a 2f80 20 11010100 BLT   $10FF      2d 00 2b 00 26      569 
10ff 0000 21d0 219e 217a 2f80 20 11010100 BMI   $1101      2b 00 26 00 2a      572 
1101 0000 21d0 219e 217a 2f80 20 11010100 BNE   $1103      26 00 2a 00 20      575 
1103 0000 21d0 219e 217a 2f80 20 11010100 BPL   $1105      2a 00 20 00 21      578 
1105 0000 21d0 219e 217a 2f80 20 11010100 BRA   $1107      20 00 21 00 28      581 
1107 0000 21d0 219e 217a 2f80 20 11010100 BRN   $1109      21 00 28 00 29      584 
1109 0000 21d0 219e 217a 2f80 20 11010100 BVC   $110B      28 00 29 00 8d      587 
110b 0000 21d0 219e 217a 2f80 20 11010100 BVS   $110D      29 00 8d 02 20      590 
110d 0000 21d0 219e 217a 2f80 20 11010100 BSR   $1111      8d 02 20 01 39      593 
1111 0000 21d0 219e 217a 2f7e 20 11010100 RTS              39 85 12 95 34      600 
110f 0000 21d0 219e 217a 2f80 20 11010100 BRA   $1112      20 01 39 85 12      605 
1112 0000 21d0 219e 217a 2f80 20 11010100 BITA  #$12       85 12 95 34 b5      608 
1114 0000 21d0 219e 217a 2f80 20 11010100 BITA  <$34       95 34 b5 21 04      610 
1116 0000 21d0 219e 217a 2f80 20 11010100 BITA  $2104      b5 21 04 a5 9f      614 
1119 0000 21d0 219e 217a 2f80 20 11010100 BITA  [$2108]    a5 9f 21 08 a5      619 
111d 0000 21d0 219e 217a 2f80 20 11010100 BITA  ,X         a5 84 a5 a1 a5      628 
111f 0000 21d0 219e 217a 2f80 20 11010100 BITA  ,Y++       a5 a1 a5 d3 c5      632 
1121 0000 21d0 21a0 217a 2f80 20 11010100 BITA  [,--U]     a5 d3 c5 12 d5      639 
1123 0000 21d0 21a0 2178 2f80 20 11010100 BITB  #$12       c5 12 d5 34 f5      649 
1125 0000 21d0 21a0 2178 2f80 20 11010100 BITB  <$34       d5 34 f5 21 04      651 
1127 0000 21d0 21a0 2178 2f80 20 11010100 BITB  $2104      f5 21 04 e5 9f      655 
112a 0000 21d0 21a0 2178 2f80 20 11010100 BITB  [$2108]    e5 9f 21 08 e5      660 
112e 0000 21d0 21a0 2178 2f80 20 11010100 BITB  ,X         e5 84 e5 a1 e5      669 
1130 0000 21d0 21a0 2178 2f80 20 11010100 BITB  ,Y++       e5 a1 e5 d3 4f      673 
1132 0000 21d0 21a2 2178 2f80 20 11010100 BITB  [,--U]     e5 d3 4f 5f 0f      680 
1134 0000 21d0 21a2 2176 2f80 20 11010100 CLRA             4f 5f 0f 34 7f      690 
1135 0000 21d0 21a2 2176 2f80 20 11010100 CLRB             5f 0f 34 7f 21      692 
1136 0000 21d0 21a2 2176 2f80 20 11010100 CLR   <$34       0f 34 7f 21 04      694 
1138 0000 21d0 21a2 2176 2f80 20 11010100 CLR   $2104      7f 21 04 6f 9f      700 
113b 0000 21d0 21a2 2176 2f80 20 11010100 CLR   [$2108]    6f 9f 21 08 6f      707 
113f 0000 21d0 21a2 2176 2f80 20 11010100 CLR   ,X         6f 84 6f a1 6f      718 
1141 0000 21d0 21a2 2176 2f80 20 11010100 CLR   ,Y++       6f a1 6f d3 81      724 
1143 0000 21d0 21a4 2176 2f80 20 11010100 CLR   [,--U]     6f d3 81 12 91      733 
1145 0000 21d0 21a4 2174 2f80 20 11010100 CMPA  #$12       81 12 91 34 b1      745 
1147 0000 21d0 21a4 2174 2f80 20 11011001 CMPA  <$34       91 34 b1 21 04      747 
1149 0000 21d0 21a4 2174 2f80 20 11010100 CMPA  $2104      b1 21 04 a1 9f      751 
114c 0000 21d0 21a4 2174 2f80 20 11010100 CMPA  [$2108]    a1 9f 21 08 a1      756 
1150 0000 21d0 21a4 2174 2f80 20 11010100 CMPA  ,X         a1 84 a1 a1 a1      765 
1152 0000 21d0 21a4 2174 2f80 20 11010100 CMPA  ,Y++       a1 a1 a1 d3 c1      769 
1154 0000 21d0 21a6 2174 2f80 20 11011001 CMPA  [,--U]     a1 d3 c1 12 d1      776 
1156 0000 21d0 21a6 2172 2f80 20 11010100 CMPB  #$12       c1 12 d1 34 f1      786 
1158 0000 21d0 21a6 2172 2f80 20 11011001 CMPB  <$34       d1 34 f1 21 04      788 
115a 0000 21d0 21a6 2172 2f80 20 11010100 CMPB  $2104      f1 21 04 e1 9f      792 
115d 0000 21d0 21a6 2172 2f80 20 11010100 CMPB  [$2108]    e1 9f 21 08 e1      797 
1161 0000 21d0 21a6 2172 2f80 20 11010100 CMPB  ,X         e1 84 e1 a1 e1      806 
1163 0000 21d0 21a6 2172 2f80 20 11010100 CMPB  ,Y++       e1 a1 e1 d3 10      810 
1165 0000 21d0 21a8 2172 2f80 20 11011001 CMPB  [,--U]     e1 d3 10 83 00      817 
1167 0000 21d0 21a8 2170 2f80 20 11010100 CMPD  #$0012     10 83 00 12 10      827 
116b 0000 21d0 21a8 2170 2f80 20 11011001 CMPD  <$34       10 93 34 10 b3      832 
116e 0000 21d0 21a8 2170 2f80 20 11010100 CMPD  $2104      10 b3 21 04 10      839 
1172 0000 21d0 21a8 2170 2f80 20 11011001 CMPD  [$2108]    10 a3 9f 21 08      847 
1177 0000 21d0 21a8 2170 2f80 20 11011001 CMPD  ,X         10 a3 84 10 a3      859 
117a 0000 21d0 21a8 2170 2f80 20 11010100 CMPD  ,Y++       10 a3 a1 10 a3      866 
117d 0000 21d0 21aa 2170 2f80 20 11011001 CMPD  [,--U]     10 a3 d3 8c 00      876 
1180 0000 21d0 21aa 216e 2f80 20 11010100 CMPX  #$0012     8c 00 12 9c 34      889 
1183 0000 21d0 21aa 216e 2f80 20 11010000 CMPX  <$34       9c 34 bc 21 04      893 
1185 0000 21d0 21aa 216e 2f80 20 11010000 CMPX  $2104      bc 21 04 ac 9f      899 
1188 0000 21d0 21aa 216e 2f80 20 11010000 CMPX  [$2108]    ac 9f 21 08 ac      906 
118c 0000 21d0 21aa 216e 2f80 20 11010000 CMPX  ,X         ac 84 ac a1 ac      917 
118e 0000 21d0 21aa 216e 2f80 20 11010000 CMPX  ,Y++       ac a1 ac d3 10      923 
1190 0000 21d0 21ac 216e 2f80 20 11011001 CMPX  [,--U]     ac d3 10 8c 00      932 
1192 0000 21d0 21ac 216c 2f80 20 11010000 CMPY  #$0012     10 8c 00 12 10      944 
1196 0000 21d0 21ac 216c 2f80 20 11010000 CMPY  <$34       10 9c 34 10 bc      949 
1199 0000 21d0 21ac 216c 2f80 20 11010000 CMPY  $2104      10 bc 21 04 10      956 
119d 0000 21d0 21ac 216c 2f80 20 11010000 CMPY  [$2108]    10 ac 9f 21 08      964 
11a2 0000 21d0 21ac 216c 2f80 20 11010000 CMPY  ,X         10 ac 84 10 ac      976 
11a5 0000 21d0 21ac 216c 2f80 20 11010000 CMPY  ,Y++       10 ac a1 10 ac      983 
11a8 0000 21d0 21ae 216c 2f80 20 11011001 CMPY  [,--U]     10 ac d3 11 83      993 
11ab 0000 21d0 21ae 216a 2f80 20 11010000 CMPU  #$0012     11 83 00 12 11     1006 
11af 0000 21d0 21ae 216a 2f80 20 11010000 CMPU  <$34       11 93 34 11 b3     1011 
11b2 0000 21d0 21ae 216a 2f80 20 11010000 CMPU  $2104      11 b3 21 04 11     1018 
11b6 0000 21d0 21ae 216a 2f80 20 11010000 CMPU  [$2108]    11 a3 9f 21 08     1026 
11bb 0000 21d0 21ae 216a 2f80 20 11010000 CMPU  ,X         11 a3 84 11 a3     1038 
11be 0000 21d0 21ae 216a 2f80 20 11010000 CMPU  ,Y++       11 a3 a1 11 a3     1045 
11c1 0000 21d0 21b0 216a 2f80 20 11011001 CMPU  [,--U]     11 a3 d3 43 53     1055 
11c4 0000 21d0 21b0 2168 2f80 20 11010000 COMA             43 53 03 34 73     1068 
11c5 ff00 21d0 21b0 2168 2f80 20 11011001 COMB             53 03 34 73 21     1070 
11c6 ffff 21d0 21b0 2168 2f80 20 11011001 COM   <$34       03 34 73 21 04     1072 
11c8 ffff 21d0 21b0 2168 2f80 20 11011001 COM   $2104      73 21 04 63 9f     1078 
11cb ffff 21d0 21b0 2168 2f80 20 11011001 COM   [$2108]    63 9f 21 08 63     1085 
11cf ffff 21d0 21b0 2168 2f80 20 11011001 COM   ,X         63 84 63 a1 63     1096 
11d1 ffff 21d0 21b0 2168 2f80 20 11011001 COM   ,Y++       63 a1 63 d3 19     1102 
11d3 ffff 21d0 21b2 2168 2f80 20 11011001 COM   [,--U]     63 d3 19 4a 5a     1111 
11d5 ffff 21d0 21b2 2166 2f80 20 11011001 DAA              19 4a 5a 0a 34     1123 
11d6 65ff 21d0 21b2 2166 2f80 20 11010001 DECA             4a 5a 0a 34 7a     1125 
11d7 64ff 21d0 21b2 2166 2f80 20 11010001 DECB             5a 0a 34 7a 21     1127 
11d8 64fe 21d0 21b2 2166 2f80 20 11011001 DEC   <$34       0a 34 7a 21 04     1129 
11da 64fe 21d0 21b2 2166 2f80 20 11011001 DEC   $2104      7a 21 04 6a 9f     1135 
11dd 64fe 21d0 21b2 2166 2f80 20 11011001 DEC   [$2108]    6a 9f 21 08 6a     1142 
11e1 64fe 21d0 21b2 2166 2f80 20 11011001 DEC   ,X         6a 84 6a a1 6a     1153 
11e3 64fe 21d0 21b2 2166 2f80 20 11011001 DEC   ,Y++       6a a1 6a d3 88     1159 
11e5 64fe 21d0 21b4 2166 2f80 20 11010001 DEC   [,--U]     6a d3 88 12 98     1168 
11e7 64fe 21d0 21b4 2164 2f80 20 11011001 EORA  #$12       88 12 98 34 b8     1180 
11e9 76fe 21d0 21b4 2164 2f80 20 11010001 EORA  <$34       98 34 b8 21 04     1182 
11eb 88fe 21d0 21b4 2164 2f80 20 11011001 EORA  $2104      b8 21 04 a8 9f     1186 
11ee 76fe 21d0 21b4 2164 2f80 20 11010001 EORA  [$2108]    a8 9f 21 08 a8     1191 
11f2 88fe 21d0 21b4 2164 2f80 20 11011001 EORA  ,X         a8 84 a8 a1 a8     1200 
11f4 76fe 21d0 21b4 2164 2f80 20 11010001 EORA  ,Y++       a8 a1 a8 d3 c8     1204 
11f6 55fe 21d0 21b6 2164 2f80 20 11010001 EORA  [,--U]     a8 d3 c8 12 d8     1211 
11f8 55fe 21d0 21b6 2162 2f80 20 11010001 EORB  #$12       c8 12 d8 34 f8     1221 
11fa 55ec 21d0 21b6 2162 2f80 20 11011001 EORB  <$34       d8 34 f8 21 04     1223 
11fc 5512 21d0 21b6 2162 2f80 20 11010001 EORB  $2104      f8 21 04 e8 9f     1227 
11ff 55ec 21d0 21b6 2162 2f80 20 11011001 EORB  [$2108]    e8 9f 21 08 e8     1232 
1203 5512 21d0 21b6 2162 2f80 20 11010001 EORB  ,X         e8 84 e8 a1 e8     1241 
1205 55ec 21d0 21b6 2162 2f80 20 11011001 EORB  ,Y++       e8 a1 e8 d3 1e     1245 
1207 55cf 21d0 21b8 2162 2f80 20 11011001 EORB  [,--U]     e8 d3 1e 89 1e     1252 
1209 55cf 21d0 21b8 2160 2f80 20 11011001 EXG   A,B        1e 89 1e 12 4c     1262 
120b cf55 21d0 21b8 2160 2f80 20 11011001 EXG   X,Y        1e 12 4c 5c 0c     1270 
120d cf55 21b8 21d0 2160 2f80 20 11011001 INCA             4c 5c 0c 34 7c     1278 
120e d055 21b8 21d0 2160 2f80 20 11011001 INCB             5c 0c 34 7c 21     1280 
120f d056 21b8 21d0 2160 2f80 20 11010001 INC   <$34       0c 34 7c 21 04     1282 
1211 d056 21b8 21d0 2160 2f80 20 11011001 INC   $2104      7c 21 04 6c 9f     1288 
1214 d056 21b8 21d0 2160 2f80 20 11011001 INC   [$2108]    6c 9f 21 08 6c     1295 
1218 d056 21b8 21d0 2160 2f80 20 11011001 INC   ,X         6c 84 6c a1 6c     1306 
121a d056 21b8 21d0 2160 2f80 20 11010001 INC   ,Y++       6c a1 6c d3 10     1312 
121c d056 21b8 21d2 2160 2f80 20 11011001 INC   [,--U]     6c d3 10 24 00     1321 
121e d056 21b8 21d2 215e 2f80 20 11010001 LBCC  $1222      10 24 00 00 10     1333 
1222 d056 21b8 21d2 215e 2f80 20 11010001 LBCS  $1226      10 25 00 00 10     1338 
1226 d056 21b8 21d2 215e 2f80 20 11010001 LBEQ  $122A      10 27 00 00 10     1344 
122a d056 21b8 21d2 215e 2f80 20 11010001 LBGE  $122E      10 2c 00 00 10     1349 
122e d056 21b8 21d2 215e 2f80 20 11010001 LBGT  $1232      10 2e 00 00 10     1355 
1232 d056 21b8 21d2 215e 2f80 20 11010001 LBHI  $1236      10 22 00 00 10     1361 
1236 d056 21b8 21d2 215e 2f80 20 11010001 LBCC  $123A      10 24 00 00 10     1366 
123a d056 21b8 21d2 215e 2f80 20 11010001 LBLE  $123E      10 2f 00 00 10     1371 
123e d056 21b8 21d2 215e 2f80 20 11010001 LBCS  $1242      10 25 00 00 10     1376 
1242 d056 21b8 21d2 215e 2f80 20 11010001 LBLS  $1246      10 23 00 00 10     1382 
1246 d056 21b8 21d2 215e 2f80 20 11010001 LBLT  $124A      10 2d 00 00 10     1388 
124a d056 21b8 21d2 215e 2f80 20 11010001 LBMI  $124E      10 2b 00 00 10     1393 
124e d056 21b8 21d2 215e 2f80 20 11010001 LBNE  $1252      10 26 00 00 10     1398 
1252 d056 21b8 21d2 215e 2f80 20 11010001 LBPL  $1256      10 2a 00 00 16     1404 
1256 d056 21b8 21d2 215e 2f80 20 11010001 LBRA  $1259      16 00 00 10 21     1410 
1259 d056 21b8 21d2 215e 2f80 20 11010001 LBRN  $125D      10 21 00 00 10     1415 
125d d056 21b8 21d2 215e 2f80 20 11010001 LBVC  $1261      10 28 00 00 10     1420 
1261 d056 21b8 21d2 215e 2f80 20 11010001 LBVS  $1265      10 29 00 00 17     1426 
1265 d056 21b8 21d2 215e 2f80 20 11010001 LBSR  $126A      17 00 02 20 01     1431 
126a d056 21b8 21d2 215e 2f7e 20 11010001 RTS              39 86 12 96 34     1440 
1268 d056 21b8 21d2 215e 2f80 20 11010001 BRA   $126B      20 01 39 86 12     1445 
126b d056 21b8 21d2 215e 2f80 20 11010001 LDA   #$12       86 12 96 34 b6     1448 
126d 1256 21b8 21d2 215e 2f80 20 11010001 LDA   <$34       96 34 b6 21 04     1450 
126f ff56 21b8 21d2 215e 2f80 20 11011001 LDA   $2104      b6 21 04 a6 9f     1454 
1272 ff56 21b8 21d2 215e 2f80 20 11011001 LDA   [$2108]    a6 9f 21 08 a6     1459 
1276 ff56 21b8 21d2 215e 2f80 20 11011001 LDA   ,X         a6 84 a6 a1 a6     1468 
1278 2456 21b8 21d2 215e 2f80 20 11010001 LDA   ,Y++       a6 a1 a6 d3 c6     1472 
127a 0056 21b8 21d4 215e 2f80 20 11010101 LDA   [,--U]     a6 d3 c6 12 d6     1479 
127c 0056 21b8 21d4 215c 2f80 20 11010101 LDB   #$12       c6 12 d6 34 f6     1489 
127e 0012 21b8 21d4 215c 2f80 20 11010001 LDB   <$34       d6 34 f6 21 04     1491 
1280 00ff 21b8 21d4 215c 2f80 20 11011001 LDB   $2104      f6 21 04 e6 9f     1495 
1283 00ff 21b8 21d4 215c 2f80 20 11011001 LDB   [$2108]    e6 9f 21 08 e6     1500 
1287 00ff 21b8 21d4 215c 2f80 20 11011001 LDB   ,X         e6 84 e6 a1 e6     1509 
1289 0024 21b8 21d4 215c 2f80 20 11010001 LDB   ,Y++       e6 a1 e6 d3 cc     1513 
128b 0000 21b8 21d6 215c 2f80 20 11010101 LDB   [,--U]     e6 d3 cc 00 12     1520 
128d 0000 21b8 21d6 215a 2f80 20 11010101 LDD   #$0012     cc 00 12 dc 34     1530 
1290 0012 21b8 21d6 215a 2f80 20 11010001 LDD   <$34       dc 34 fc 21 04     1533 
1292 ff00 21b8 21d6 215a 2f80 20 11011001 LDD   $2104      fc 21 04 ec 9f     1538 
1295 ffcd 21b8 21d6 215a 2f80 20 11011001 LDD   [$2108]    ec 9f 21 08 ec     1544 
1299 ffcd 21b8 21d6 215a 2f80 20 11011001 LDD   ,X         ec 84 ec a1 ec     1554 
129b 240c 21b8 21d6 215a 2f80 20 11010001 LDD   ,Y++       ec a1 ec d3 34     1559 
129d 0000 21b8 21d8 215a 2f80 20 11010101 LDD   [,--U]     ec d3 34 70 10     1567 
129f 0000 21b8 21d8 2158 2f80 20 11010101 PSHS  U,Y,X      34 70 10 ff 21     1578 
12a1 0000 21b8 21d8 2158 2f7a 20 11010101 STS   $2102      10 ff 21 02 30     1589 
12a5 0000 21b8 21d8 2158 2f7a 20 11010001 LEAX  $5,X       30 05 30 a1 30     1596 
12a7 0000 21bd 21d8 2158 2f7a 20 11010001 LEAX  ,Y++       30 a1 30 c3 30     1601 
12a9 0000 21d8 21da 2158 2f7a 20 11010001 LEAX  ,--U       30 c3 30 f1 31     1608 
12ab 0000 2156 21da 2156 2f7a 20 11010001 LEAX  [,S++]     30 f1 31 05 31     1615 
12ad 0000 21b8 21da 2156 2f7c 20 11010001 LEAY  $5,X       31 05 31 a1 31     1625 
12af 0000 21b8 21bd 2156 2f7c 20 11010001 LEAY  ,Y++       31 a1 31 c3 31     1630 
12b1 0000 21b8 21bd 2156 2f7c 20 11010001 LEAY  ,--U       31 c3 31 f1 33     1637 
12b3 0000 21b8 2154 2154 2f7c 20 11010001 LEAY  [,S++]     31 f1 33 05 33     1644 
12b5 0000 21b8 21d8 2154 2f7e 20 11010001 LEAU  $5,X       33 05 33 a1 33     1654 
12b7 0000 21b8 21d8 21bd 2f7e 20 11010001 LEAU  ,Y++       33 a1 33 c3 33     1659 
12b9 0000 21b8 21da 21d8 2f7e 20 11010001 LEAU  ,--U       33 c3 33 f1 32     1666 
12bb 0000 21b8 21da 21d6 2f7e 20 11010001 LEAU  [,S++]     33 f1 32 05 32     1673 
12bd 0000 21b8 21da 2158 2f80 20 11010001 LEAS  $5,X       32 05 32 a1 32     1683 
12bf 0000 21b8 21da 2158 21bd 20 11010001 LEAS  ,Y++       32 a1 32 c3 32     1688 
12c1 0000 21b8 21dc 2158 21da 20 11010001 LEAS  ,--U       32 c3 32 f1 8e     1695 
12c3 0000 21b8 21dc 2156 2156 20 11010001 LEAS  [,S++]     32 f1 8e 00 02     1702 
12c5 0000 21b8 21dc 2156 230a 20 11010001 LDX   #$0002     8e 00 02 30 1f     1712 
12c8 0000 0002 21dc 2156 230a 20 11010001 LEAX  -$1,X      30 1f 30 1f 10     1715 
12ca 0000 0001 21dc 2156 230a 20 11010001 LEAX  -$1,X      30 1f 10 8e 00     1720 
12cc 0000 0000 21dc 2156 230a 20 11010101 LDY   #$0002     10 8e 00 02 31     1725 
12d0 0000 0000 0002 2156 230a 20 11010001 LEAY  -$1,Y      31 3f 31 3f 10     1729 
12d2 0000 0000 0001 2156 230a 20 11010001 LEAY  -$1,Y      31 3f 10 ce 00     1734 
12d4 0000 0000 0000 2156 230a 20 11010101 LDS   #$0002     10 ce 00 02 32     1739 
12d8 0000 0000 0000 2156 0002 20 11010001 LEAS  -$1,S      32 7f 32 7f ce     1743 
12da 0000 0000 0000 2156 0001 20 11010001 LEAS  -$1,S      32 7f ce 00 02     1748 
12dc 0000 0000 0000 2156 0000 20 11010001 LDU   #$0002     ce 00 02 33 5f     1753 
12df 0000 0000 0000 0002 0000 20 11010001 LEAU  -$1,U      33 5f 33 5f 10     1756 
12e1 0000 0000 0000 0001 0000 20 11010001 LEAU  -$1,U      33 5f 10 fe 21     1761 
12e3 0000 0000 0000 0000 0000 20 11010001 LDS   $2102      10 fe 21 02 35     1766 
12e7 0000 0000 0000 0000 2f7a 20 11010001 PULS  X,Y,U      35 70 48 58 08     1773 
12e9 0000 21b8 21d8 2158 2f80 20 11010001 ASLA             48 58 08 34 78     1784 
12ea 0000 21b8 21d8 2158 2f80 20 11010100 ASLB             58 08 34 78 21     1786 
12eb 0000 21b8 21d8 2158 2f80 20 11010100 ASL   <$34       08 34 78 21 04     1788 
12ed 0000 21b8 21d8 2158 2f80 20 11011001 ASL   $2104      78 21 04 68 9f     1794 
12f0 0000 21b8 21d8 2158 2f80 20 11011001 ASL   [$2108]    68 9f 21 08 68     1801 
12f4 0000 21b8 21d8 2158 2f80 20 11011001 ASL   ,X         68 84 68 a1 68     1812 
12f6 0000 21b8 21d8 2158 2f80 20 11010000 ASL   ,Y++       68 a1 68 d3 44     1818 
12f8 0000 21b8 21da 2158 2f80 20 11010100 ASL   [,--U]     68 d3 44 54 04     1827 
12fa 0000 21b8 21da 2156 2f80 20 11011001 LSRA             44 54 04 34 74     1839 
12fb 0000 21b8 21da 2156 2f80 20 11010100 LSRB             54 04 34 74 21     1841 
12fc 0000 21b8 21da 2156 2f80 20 11010100 LSR   <$34       04 34 74 21 04     1843 
12fe 0000 21b8 21da 2156 2f80 20 11010000 LSR   $2104      74 21 04 64 9f     1849 
1301 0000 21b8 21da 2156 2f80 20 11010000 LSR   [$2108]    64 9f 21 08 64     1856 
1305 0000 21b8 21da 2156 2f80 20 11010000 LSR   ,X         64 84 64 a1 64     1867 
1307 0000 21b8 21da 2156 2f80 20 11010000 LSR   ,Y++       64 a1 64 d3 3d     1873 
1309 0000 21b8 21dc 2156 2f80 20 11010100 LSR   [,--U]     64 d3 3d 40 50     1882 
130b 0000 21b8 21dc 2154 2f80 20 11010001 MUL              3d 40 50 00 34     1894 
130c 0000 21b8 21dc 2154 2f80 20 11010100 NEGA             40 50 00 34 70     1905 
130d 0000 21b8 21dc 2154 2f80 20 11010100 NEGB             50 00 34 70 21     1907 
130e 0000 21b8 21dc 2154 2f80 20 11010100 NEG   <$34       00 34 70 21 04     1909 
1310 0000 21b8 21dc 2154 2f80 20 11011001 NEG   $2104      70 21 04 60 9f     1915 
1313 0000 21b8 21dc 2154 2f80 20 11011001 NEG   [$2108]    60 9f 21 08 60     1922 
1317 0000 21b8 21dc 2154 2f80 20 11011001 NEG   ,X         60 84 60 a1 60     1933 
1319 0000 21b8 21dc 2154 2f80 20 11011001 NEG   ,Y++       60 a1 60 d3 12     1939 
131b 0000 21b8 21de 2154 2f80 20 11010100 NEG   [,--U]     60 d3 12 8a 12     1948 
131d 0000 21b8 21de 2152 2f80 20 11010100 NOP              12 8a 12 9a 34     1960 
131e 0000 21b8 21de 2152 2f80 20 11010100 ORA   #$12       8a 12 9a 34 ba     1962 
1320 1200 21b8 21de 2152 2f80 20 11010000 ORA   <$34       9a 34 ba 21 04     1964 
1322 9300 21b8 21de 2152 2f80 20 11011000 ORA   $2104      ba 21 04 aa 9f     1968 
1325 9300 21b8 21de 2152 2f80 20 11011000 ORA   [$2108]    aa 9f 21 08 aa     1973 
1329 9300 21b8 21de 2152 2f80 20 11011000 ORA   ,X         aa 84 aa a1 aa     1982 
132b df00 21b8 21de 2152 2f80 20 11011000 ORA   ,Y++       aa a1 aa d3 ca     1986 
132d df00 21b8 21e0 2152 2f80 20 11011000 ORA   [,--U]     aa d3 ca 12 da     1993 
132f df00 21b8 21e0 2150 2f80 20 11011000 ORB   #$12       ca 12 da 34 fa     2003 
1331 df12 21b8 21e0 2150 2f80 20 11010000 ORB   <$34       da 34 fa 21 04     2005 
1333 df93 21b8 21e0 2150 2f80 20 11011000 ORB   $2104      fa 21 04 ea 9f     2009 
1336 df93 21b8 21e0 2150 2f80 20 11011000 ORB   [$2108]    ea 9f 21 08 ea     2014 
133a df93 21b8 21e0 2150 2f80 20 11011000 ORB   ,X         ea 84 ea a1 ea     2023 
133c dfdf 21b8 21e0 2150 2f80 20 11011000 ORB   ,Y++       ea a1 ea d3 1a     2027 
133e dfdf 21b8 21e2 2150 2f80 20 11011000 ORB   [,--U]     ea d3 1a 00 34     2034 
1340 dfdf 21b8 21e2 214e 2f80 20 11011000 ORCC  #$00       1a 00 34 ff 35     2044 
1342 dfdf 21b8 21e2 214e 2f80 20 11011000 PSHS  PC,U,Y,X,DP,B,A,CC 34 ff 35 7f 35     2047 
1344 dfdf 21b8 21e2 214e 2f74 20 11011000 PULS  CC,A,B,DP,X,Y,U 35 7f 35 10 36     2064 
1346 dfdf 21b8 21e2 214e 2f7e 20 11011000 PULS  X          35 10 36 ff 37     2079 
1348 dfdf 1344 21e2 214e 2f80 20 11011000 PSHU  PC,S,Y,X,DP,B,A,CC 36 ff 37 7f 37     2086 
134a dfdf 1344 21e2 2142 2f80 20 11011000 PULU  CC,A,B,DP,X,Y,S 37 7f 37 10 1f     2103 
134c dfdf 1344 21e2 214c 2f80 20 11011000 PULU  X          37 10 1f 21 49     2118 
134e dfdf 134a 21e2 214e 2f80 20 11011000 TFR   Y,X        1f 21 49 59 09     2125 
1350 dfdf 21e2 21e2 214e 2f80 20 11011000 ROLA             49 59 09 34 79     2131 
1351 bedf 21e2 21e2 214e 2f80 20 11011001 ROLB             59 09 34 79 21     2133 
1352 bebf 21e2 21e2 214e 2f80 20 11011001 ROL   <$34       09 34 79 21 04     2135 
1354 bebf 21e2 21e2 214e 2f80 20 11010011 ROL   $2104      79 21 04 69 9f     2141 
1357 bebf 21e2 21e2 214e 2f80 20 11010011 ROL   [$2108]    69 9f 21 08 69     2148 
135b bebf 21e2 21e2 214e 2f80 20 11010011 ROL   ,X         69 84 69 a1 69     2159 
135d bebf 21e2 21e2 214e 2f80 20 11010000 ROL   ,Y++       69 a1 69 d3 46     2165 
135f bebf 21e2 21e4 214e 2f80 20 11010000 ROL   [,--U]     69 d3 46 56 06     2174 
1361 bebf 21e2 21e4 214c 2f80 20 11010000 RORA             46 56 06 34 76     2186 
1362 5fbf 21e2 21e4 214c 2f80 20 11010000 RORB             56 06 34 76 21     2188 
1363 5f5f 21e2 21e4 214c 2f80 20 11010001 ROR   <$34       06 34 76 21 04     2190 
1365 5f5f 21e2 21e4 214c 2f80 20 11011001 ROR   $2104      76 21 04 66 9f     2196 
1368 5f5f 21e2 21e4 214c 2f80 20 11011001 ROR   [$2108]    66 9f 21 08 66     2203 
136c 5f5f 21e2 21e4 214c 2f80 20 11011001 ROR   ,X         66 84 66 a1 66     2214 
136e 5f5f 21e2 21e4 214c 2f80 20 11011000 ROR   ,Y++       66 a1 66 d3 82     2220 
1370 5f5f 21e2 21e6 214c 2f80 20 11010100 ROR   [,--U]     66 d3 82 12 92     2229 
1372 5f5f 21e2 21e6 214a 2f80 20 11010001 SBCA  #$12       82 12 92 34 b2     2241 
1374 4c5f 21e2 21e6 214a 2f80 20 11010000 SBCA  <$34       92 34 b2 21 04     2243 
1376 cb5f 21e2 21e6 214a 2f80 20 11011011 SBCA  $2104      b2 21 04 a2 9f     2247 
1379 495f 21e2 21e6 214a 2f80 20 11010000 SBCA  [$2108]    a2 9f 21 08 a2     2252 
137d c85f 21e2 21e6 214a 2f80 20 11011011 SBCA  ,X         a2 84 a2 a1 a2     2261 
137f 465f 21e2 21e6 214a 2f80 20 11010000 SBCA  ,Y++       a2 a1 a2 d3 c2     2265 
1381 465f 21e2 21e8 214a 2f80 20 11010000 SBCA  [,--U]     a2 d3 c2 12 d2     2272 
1383 c55f 21e2 21e8 2148 2f80 20 11011011 SBCB  #$12       c2 12 d2 34 f2     2282 
1385 c54c 21e2 21e8 2148 2f80 20 11010000 SBCB  <$34       d2 34 f2 21 04     2284 
1387 c5cb 21e2 21e8 2148 2f80 20 11011011 SBCB  $2104      f2 21 04 e2 9f     2288 
138a c549 21e2 21e8 2148 2f80 20 11010000 SBCB  [$2108]    e2 9f 21 08 e2     2293 
138e c5c8 21e2 21e8 2148 2f80 20 11011011 SBCB  ,X         e2 84 e2 a1 e2     2302 
1390 c546 21e2 21e8 2148 2f80 20 11010000 SBCB  ,Y++       e2 a1 e2 d3 1d     2306 
1392 c546 21e2 21ea 2148 2f80 20 11010000 SBCB  [,--U]     e2 d3 1d 97 34     2313 
1394 c511 21e2 21ea 2146 2f80 20 11010000 SEX              1d 97 34 b7 21     2323 
1395 0011 21e2 21ea 2146 2f80 20 11010000 STA   <$34       97 34 b7 21 04     2325 
1397 0011 21e2 21ea 2146 2f80 20 11010100 STA   $2104      b7 21 04 a7 9f     2329 
139a 0011 21e2 21ea 2146 2f80 20 11010100 STA   [$2108]    a7 9f 21 08 a7     2334 
139e 0011 21e2 21ea 2146 2f80 20 11010100 STA   ,X         a7 84 a7 a1 a7     2343 
13a0 0011 21e2 21ea 2146 2f80 20 11010100 STA   ,Y++       a7 a1 a7 d3 d7     2347 
13a2 0011 21e2 21ec 2146 2f80 20 11010100 STA   [,--U]     a7 d3 d7 34 f7     2354 
13a4 0011 21e2 21ec 2144 2f80 20 11010100 STB   <$34       d7 34 f7 21 04     2364 
13a6 0011 21e2 21ec 2144 2f80 20 11010000 STB   $2104      f7 21 04 e7 9f     2368 
13a9 0011 21e2 21ec 2144 2f80 20 11010000 STB   [$2108]    e7 9f 21 08 e7     2373 
13ad 0011 21e2 21ec 2144 2f80 20 11010000 STB   ,X         e7 84 e7 a1 e7     2382 
13af 0011 21e2 21ec 2144 2f80 20 11010000 STB   ,Y++       e7 a1 e7 d3 dd     2386 
13b1 0011 21e2 21ee 2144 2f80 20 11010000 STB   [,--U]     e7 d3 dd 34 fd     2393 
13b3 0011 21e2 21ee 2142 2f80 20 11010000 STD   <$34       dd 34 fd 21 04     2403 
13b5 0011 21e2 21ee 2142 2f80 20 11010000 STD   $2104      fd 21 04 ed 9f     2408 
13b8 0011 21e2 21ee 2142 2f80 20 11010000 STD   [$2108]    ed 9f 21 08 ed     2414 
13bc 0011 21e2 21ee 2142 2f80 20 11010000 STD   ,X         ed 84 ed a1 ed     2424 
13be 0011 21e2 21ee 2142 2f80 20 11010000 STD   ,Y++       ed a1 ed d3 80     2429 
13c0 0011 21e2 21f0 2142 2f80 20 11010000 STD   [,--U]     ed d3 80 12 90     2437 
13c2 0011 21e2 21f0 2140 2f80 20 11010000 SUBA  #$12       80 12 90 34 b0     2448 
13c4 ee11 21e2 21f0 2140 2f80 20 11011001 SUBA  <$34       90 34 b0 21 04     2450 
13c6 ee11 21e2 21f0 2140 2f80 20 11011000 SUBA  $2104      b0 21 04 a0 9f     2454 
13c9 ee11 21e2 21f0 2140 2f80 20 11011000 SUBA  [$2108]    a0 9f 21 08 a0     2459 
13cd ee11 21e2 21f0 2140 2f80 20 11011000 SUBA  ,X         a0 84 a0 a1 a0     2468 
13cf ee11 21e2 21f0 2140 2f80 20 11011000 SUBA  ,Y++       a0 a1 a0 d3 c0     2472 
13d1 ee11 21e2 21f2 2140 2f80 20 11011000 SUBA  [,--U]     a0 d3 c0 12 d0     2479 
13d3 ed11 21e2 21f2 213e 2f80 20 11011000 SUBB  #$12       c0 12 d0 34 f0     2489 
13d5 edff 21e2 21f2 213e 2f80 20 11011001 SUBB  <$34       d0 34 f0 21 04     2491 
13d7 edff 21e2 21f2 213e 2f80 20 11011000 SUBB  $2104      f0 21 04 e0 9f     2495 
13da edff 21e2 21f2 213e 2f80 20 11011000 SUBB  [$2108]    e0 9f 21 08 e0     2500 
13de edff 21e2 21f2 213e 2f80 20 11011000 SUBB  ,X         e0 84 e0 a1 e0     2509 
13e0 edff 21e2 21f2 213e 2f80 20 11011000 SUBB  ,Y++       e0 a1 e0 d3 83     2513 
13e2 edff 21e2 21f4 213e 2f80 20 11011000 SUBB  [,--U]     e0 d3 83 00 12     2520 
13e4 edff 21e2 21f4 213c 2f80 20 11011000 SUBD  #$0012     83 00 12 93 34     2530 
13e7 eded 21e2 21f4 213c 2f80 20 11011000 SUBD  <$34       93 34 b3 21 04     2534 
13e9 eddc 21e2 21f4 213c 2f80 20 11011000 SUBD  $2104      b3 21 04 a3 9f     2540 
13ec edcb 21e2 21f4 213c 2f80 20 11011000 SUBD  [$2108]    a3 9f 21 08 a3     2547 
13f0 edba 21e2 21f4 213c 2f80 20 11011000 SUBD  ,X         a3 84 a3 a1 a3     2558 
13f2 eda9 21e2 21f4 213c 2f80 20 11011000 SUBD  ,Y++       a3 a1 a3 d3 3f     2564 
13f4 eda9 21e2 21f6 213c 2f80 20 11011000 SUBD  [,--U]     a3 d3 3f 10 3f     2573 
13f6 eda9 21e2 21f6 213a 2f80 20 11011000 SWI              3f 10 3f 11 3f     2585 
fefa eda9 21e2 21f6 213a 2f74 20 11011000 LBRA  $0106      16 02 09 16 16     2604 
0106 eda9 21e2 21f6 213a 2f74 20 11011000 RTI              3b 00 00 7e d8     2609 
13f7 eda9 21e2 21f6 213a 2f80 20 11011000 OS9   F$CmpNam   10 3f 11 3f 1f     2624 
fef1 eda9 21e2 21f6 213a 2f74 20 11011000 LBRA  $0103      16 02 0f 16 02     2644 
0103 eda9 21e2 21f6 213a 2f74 20 11011000 RTI              3b 3b 3b 3b 00     2649 
13f9 eda9 21e2 21f6 213a 2f80 20 11011000 SWI3             11 3f 1f 89 1f     2664 
feee eda9 21e2 21f6 213a 2f74 20 11011000 LBRA  $0100      16 02 0f 16 02     2684 
0100 eda9 21e2 21f6 213a 2f74 20 11011000 RTI              3b 3b 3b 3b 3b     2689 
13fb eda9 21e2 21f6 213a 2f80 20 11011000 TFR   A,B        1f 89 1f 12 4d     2704 
13fd eded 21e2 21f6 213a 2f80 20 11011000 TFR   X,Y        1f 12 4d 5d 0d     2710 
13ff eded 21e2 21e2 213a 2f80 20 11011000 TSTA             4d 5d 0d 34 7d     2716 
1400 eded 21e2 21e2 213a 2f80 20 11011000 TSTB             5d 0d 34 7d 21     2718 
1401 eded 21e2 21e2 213a 2f80 20 11011000 TST   <$34       0d 34 7d 21 04     2720 
1403 eded 21e2 21e2 213a 2f80 20 11010100 TST   $2104      7d 21 04 6d 9f     2726 
1406 eded 21e2 21e2 213a 2f80 20 11010100 TST   [$2108]    6d 9f 21 08 6d     2733 
140a eded 21e2 21e2 213a 2f80 20 11010100 TST   ,X         6d 84 6d a1 6d     2744 
140c eded 21e2 21e2 213a 2f80 20 11010100 TST   ,Y++       6d a1 6d d3 a6     2750 
140e eded 21e2 21e4 213a 2f80 20 11010100 TST   [,--U]     6d d3 a6 82 a6     2759 
1410 eded 21e2 21e4 2138 2f80 20 11010100 LDA   ,-X        a6 82 a6 80 a6     2771 
1412 00ed 21e1 21e4 2138 2f80 20 11010100 LDA   ,X+        a6 80 a6 01 a6     2777 
1414 00ed 21e2 21e4 2138 2f80 20 11010100 LDA   $1,X       a6 01 a6 1f a6     2783 
1416 11ed 21e2 21e4 2138 2f80 20 11010000 LDA   -$1,X      a6 1f a6 88 10     2788 
1418 00ed 21e2 21e4 2138 2f80 20 11010100 LDA   $10,X      a6 88 10 a6 10     2793 
141b 00ed 21e2 21e4 2138 2f80 20 11010100 LDA   -$10,X     a6 10 a6 0f a6     2798 
141d 00ed 21e2 21e4 2138 2f80 20 11010100 LDA   $F,X       a6 0f a6 11 8e     2803 
141f 00ed 21e2 21e4 2138 2f80 20 11010100 LDA   -$F,X      a6 11 8e 20 ad     2808 
1421 00ed 21e2 21e4 2138 2f80 20 11010100 LDX   #$20AD     8e 20 ad a6 88     2813 
1424 00ed 20ad 21e4 2138 2f80 20 11010000 LDA   $7F,X      a6 88 7f a6 89     2816 
1427 23ed 20ad 21e4 2138 2f80 20 11010000 LDA   $0080,X    a6 89 00 80 8e     2821 
142b 00ed 20ad 21e4 2138 2f80 20 11010100 LDX   #$21AC     8e 21 ac a6 88     2829 
142e 00ed 21ac 21e4 2138 2f80 20 11010000 LDA   -$7F,X     a6 88 81 a6 88     2832 
1431 00ed 21ac 21e4 2138 2f80 20 11010100 LDA   -$80,X     a6 88 80 8e 20     2837 
1434 23ed 21ac 21e4 2138 2f80 20 11010000 LDX   #$202C     8e 20 2c a6 89     2842 
1437 23ed 202c 21e4 2138 2f80 20 11010000 LDA   $0100,X    a6 89 01 00 96     2845 
143b 23ed 202c 21e4 2138 2f80 20 11010000 LDA   <$02       96 02 96 fe 8e     2853 
143d 00ed 202c 21e4 2138 2f80 20 11010100 LDA   <$FE       96 fe 8e 22 2c     2857 
143f 00ed 202c 21e4 2138 2f80 20 11010100 LDX   #$222C     8e 22 2c a6 89     2861 
1442 00ed 222c 21e4 2138 2f80 20 11010000 LDA   -$0100,X   a6 89 ff 00 8e     2864 
1446 23ed 222c 21e4 2138 2f80 20 11010000 LDX   #$A12D     8e a1 2d a6 89     2872 
1449 23ed a12d 21e4 2138 2f80 20 11011000 LDA   $7FFF,X    a6 89 7f ff 30     2875 
144d 23ed a12d 21e4 2138 2f80 20 11010000 LEAX  -$4000,X   30 89 c0 00 30     2883 
1451 23ed 612d 21e4 2138 2f80 20 11010000 LEAX  -$8000,X   30 89 80 00 31     2891 
1455 23ed e12d 21e4 2138 2f80 20 11010000 LEAY  -$40,Y     31 a8 c0 30 89     2899 
1458 23ed e12d 21a4 2138 2f80 20 11010000 LEAX  -$015E,X   30 89 fe a2 30     2904 
145c 23ed dfcf 21a4 2138 2f80 20 11010000 LEAX  $1,X       30 01 33 c9 02     2912 
145e 23ed dfd0 21a4 2138 2f80 20 11010000 LEAU  $0200,U    33 c9 02 00 33     2917 
1462 23ed dfd0 21a4 2338 2f80 20 11010000 LEAU  $20,U      33 c8 20 31 a8     2925 
1465 23ed dfd0 21a4 2358 2f80 20 11010000 LEAY  $20,Y      31 a8 20 32 62     2930 
1468 23ed dfd0 21c4 2358 2f80 20 11010000 LEAS  $2,S       32 62 32 7e 33     2935 
146a 23ed dfd0 21c4 2358 2f82 20 11010000 LEAS  -$2,S      32 7e 33 cb 30     2940 
146c 23ed dfd0 21c4 2358 2f80 20 11010000 LEAU  D,U        33 cb 30 1f 31     2945 
146e 23ed dfd0 21c4 4745 2f80 20 11010000 LEAX  -$1,X      30 1f 31 a5 30     2953 
1470 23ed dfcf 21c4 4745 2f80 20 11010000 LEAY  B,Y        31 a5 30 89 fe     2958 
1472 23ed dfcf 21b1 4745 2f80 20 11010000 LEAX  -$015E,X   30 89 fe a2 8e     2963 
1476 23ed de71 21b1 4745 2f80 20 11010000 LDX   #$216C     8e 21 6c a6 93     2971 
1479 23ed 216c 21b1 4745 2f80 20 11010000 LDA   [,--X]     a6 93 a6 91 ad     2974 
147b 00ed 216a 21b1 4745 2f80 20 11010100 LDA   [,X++]     a6 91 ad 9f 21     2984 
147d 00ed 216c 21b1 4745 2f80 20 11010100 JSR   [$210A]    ad 9f 21 0a 30     2994 
14a0 00ed 216c 21b1 4745 2f7e 20 11010100 RTS              39 3b 00 00 00     3006 
1481 00ed 216c 21b1 4745 2f80 20 11010100 LEAX  -$03,PC    30 8c fd 30 8c     3011 
1484 00ed 1481 21b1 4745 2f80 20 11010000 LEAX  -$03,PC    30 8c fd ae 8c     3016 
1487 00ed 1484 21b1 4745 2f80 20 11010000 LDX   -$03,PC    ae 8c fd ae 8c     3021 
148a 00ed ae8c 21b1 4745 2f80 20 11011000 LDX   -$03,PC    ae 8c fd 30 8c     3027 
148d 00ed ae8c 21b1 4745 2f80 20 11011000 LEAX  -$02,PC    30 8c fe a6 8c     3033 
1490 00ed 148e 21b1 4745 2f80 20 11011000 LDA   -$03,PC    a6 8c fd a6 8d     3038 
1493 a6ed 148e 21b1 4745 2f80 20 11011000 LDA   $1495,PC   a6 8d 14 95 4f     3043 
1497 00ed 148e 21b1 4745 2f80 20 11010100 CLRA             4f 1f 8b 10 fe     3052 
1498 00ed 148e 21b1 4745 2f80 20 11010100 TFR   A,DP       1f 8b 10 fe 21     3054 
149a 00ed 148e 21b1 4745 2f80 00 11010100 LDS   $2100      10 fe 21 00 1c     3060 
149e 00ed 148e 21b1 4745 7f34 00 11010000 ANDCC #$AF       1c af 39 3b 00     3067 
fef7 00ed 148e 21b1 4745 7f28 00 10010000 LBRA  $010C      16 02 12 16 02     3089 
010c 00ed 148e 21b1 4745 7f28 00 10010000 JMP   $D8AF      7e d8 af 7e a0     3094 
d8af 00ed 148e 21b1 4745 7f28 00 10010000 LDA   $FF03      b6 ff 03 2a fa     3098 
d8b2 b5ed 148e 21b1 4745 7f28 00 10011000 BPL   $D8AE      2a fa b6 ff 02     3103 
d8b4 b5ed 148e 21b1 4745 7f28 00 10011000 LDA   $FF02      b6 ff 02 b6 09     3106 
d8b7 feed 148e 21b1 4745 7f28 00 10011000 LDA   $0985      b6 09 85 27 11     3111 
d8ba 00ed 148e 21b1 4745 7f28 00 10010100 BEQ   $D8CD      27 11 4a b7 09     3116 
d8cd 00ed 148e 21b1 4745 7f28 00 10010100 JMP   $8955      7e 89 55 00 00     3119 
8955 00ed 148e 21b1 4745 7f28 00 10010100 LDX   $0112      be 01 12 30 01     3123 
8958 00ed 01ba 21b1 4745 7f28 00 10010000 LEAX  $1,X       30 01 bf 01 12     3129 
895a 00ed 01bb 21b1 4745 7f28 00 10010000 STX   $0112      bf 01 12 7e 9c     3134 
895d 00ed 01bb 21b1 4745 7f28 00 10010000 JMP   $9C3E      7e 9c 3e 9d 9f     3140 
9c3e 00ed 01bb 21b1 4745 7f28 00 10010000 CLRA             4f 1f 8b dc e3     3144 
9c3f 00ed 01bb 21b1 4745 7f28 00 10010100 TFR   A,DP       1f 8b dc e3 10     3146 
9c41 00ed 01bb 21b1 4745 7f28 00 10010100 LDD   <$E3       dc e3 10 27 0d     3152 
9c43 0000 01bb 21b1 4745 7f28 00 10010100 LBEQ  $A9BB      10 27 0d 74 93     3157 
a9bb 0000 01bb 21b1 4745 7f28 00 10010100 LDX   $008D      be 00 8d 27 05     3163 
a9be 0000 0000 21b1 4745 7f28 00 10010100 BEQ   $A9C5      27 05 30 1f bf     3169 
a9c5 0000 0000 21b1 4745 7f28 00 10010100 RTI              3b bd b7 0e c1     3172 
14a0 00ed 148e 21b1 4745 7f34 00 10000000 RTS              39 3b 00 00 00     3187 
8302 00ed 148e 21b1 4745 7f36 00 10000000 BRA   $82BB      20 b7 ae 62 8c     3192 
